Archive member included to satisfy reference by file (symbol)

/opt/microchip/xc32/v5.00/bin/bin/../../lib/gcc/pic32m/13.2.1/libgcc.a(floatunsisf.o)
                              build/default/production/ProjectSource/CommonDefinitions.o (__floatunsisf)
/opt/microchip/xc32/v5.00/bin/bin/../../lib/gcc/pic32m/13.2.1/../../../../pic32m/lib/libpic32.a(default-bootstrap-exception-handler.o)
                              /tmp/cckmVf8F.o (_bootstrap_exception_handler)
/opt/microchip/xc32/v5.00/bin/bin/../../lib/gcc/pic32m/13.2.1/../../../../pic32m/lib/libpic32.a(default-on-reset.o)
                              /tmp/cckmVf8F.o (_on_reset)
/opt/microchip/xc32/v5.00/bin/bin/../../lib/gcc/pic32m/13.2.1/../../../../pic32m/lib/libpic32.a(default-on-bootstrap.o)
                              /tmp/cckmVf8F.o (_on_bootstrap)
/opt/microchip/xc32/v5.00/bin/bin/../../lib/gcc/pic32m/13.2.1/../../../../pic32m/lib/libpic32.a(default-nmi-handler.o)
                              /tmp/cckmVf8F.o (_nmi_handler)
/opt/microchip/xc32/v5.00/bin/bin/../../lib/gcc/pic32m/13.2.1/../../../../pic32m/lib/libpic32.a(xc32_uart.o)
                              build/default/production/FrameworkSource/terminal.o (__XC_UART)
/opt/microchip/xc32/v5.00/bin/bin/../../lib/gcc/pic32m/13.2.1/../../../../pic32m/lib/libpic32.a(pic32_data_init_core.o)
                              /tmp/cckmVf8F.o (__pic32_data_init)
/opt/microchip/xc32/v5.00/bin/bin/../../lib/gcc/pic32m/13.2.1/../../../../pic32m/lib/libpic32.a(general-exception.o)
                              /tmp/cckmVf8F.o (_general_exception_context)
/opt/microchip/xc32/v5.00/bin/bin/../../lib/gcc/pic32m/13.2.1/../../../../pic32m/lib/libpic32.a(vector1.o)
                              /tmp/ccZ3wfy0.o (__vector_dispatch_1)
/opt/microchip/xc32/v5.00/bin/bin/../../lib/gcc/pic32m/13.2.1/../../../../pic32m/lib/libpic32.a(vector2.o)
                              /tmp/ccZ3wfy0.o (__vector_dispatch_2)
/opt/microchip/xc32/v5.00/bin/bin/../../lib/gcc/pic32m/13.2.1/../../../../pic32m/lib/libpic32.a(vector3.o)
                              /tmp/ccZ3wfy0.o (__vector_dispatch_3)
/opt/microchip/xc32/v5.00/bin/bin/../../lib/gcc/pic32m/13.2.1/../../../../pic32m/lib/libpic32.a(vector4.o)
                              /tmp/ccZ3wfy0.o (__vector_dispatch_4)
/opt/microchip/xc32/v5.00/bin/bin/../../lib/gcc/pic32m/13.2.1/../../../../pic32m/lib/libpic32.a(vector5.o)
                              /tmp/ccZ3wfy0.o (__vector_dispatch_5)
/opt/microchip/xc32/v5.00/bin/bin/../../lib/gcc/pic32m/13.2.1/../../../../pic32m/lib/libpic32.a(vector6.o)
                              /tmp/ccZ3wfy0.o (__vector_dispatch_6)
/opt/microchip/xc32/v5.00/bin/bin/../../lib/gcc/pic32m/13.2.1/../../../../pic32m/lib/libpic32.a(vector7.o)
                              /tmp/ccZ3wfy0.o (__vector_dispatch_7)
/opt/microchip/xc32/v5.00/bin/bin/../../lib/gcc/pic32m/13.2.1/../../../../pic32m/lib/libpic32.a(vector8.o)
                              /tmp/ccZ3wfy0.o (__vector_dispatch_8)
/opt/microchip/xc32/v5.00/bin/bin/../../lib/gcc/pic32m/13.2.1/../../../../pic32m/lib/libpic32.a(vector9.o)
                              /tmp/ccZ3wfy0.o (__vector_dispatch_9)
/opt/microchip/xc32/v5.00/bin/bin/../../lib/gcc/pic32m/13.2.1/../../../../pic32m/lib/libpic32.a(vector10.o)
                              /tmp/ccZ3wfy0.o (__vector_dispatch_10)
/opt/microchip/xc32/v5.00/bin/bin/../../lib/gcc/pic32m/13.2.1/../../../../pic32m/lib/libpic32.a(vector11.o)
                              /tmp/ccZ3wfy0.o (__vector_dispatch_11)
/opt/microchip/xc32/v5.00/bin/bin/../../lib/gcc/pic32m/13.2.1/../../../../pic32m/lib/libpic32.a(vector12.o)
                              /tmp/ccZ3wfy0.o (__vector_dispatch_12)
/opt/microchip/xc32/v5.00/bin/bin/../../lib/gcc/pic32m/13.2.1/../../../../pic32m/lib/libpic32.a(vector13.o)
                              /tmp/ccZ3wfy0.o (__vector_dispatch_13)
/opt/microchip/xc32/v5.00/bin/bin/../../lib/gcc/pic32m/13.2.1/../../../../pic32m/lib/libpic32.a(vector14.o)
                              /tmp/ccZ3wfy0.o (__vector_dispatch_14)
/opt/microchip/xc32/v5.00/bin/bin/../../lib/gcc/pic32m/13.2.1/../../../../pic32m/lib/libpic32.a(vector15.o)
                              /tmp/ccZ3wfy0.o (__vector_dispatch_15)
/opt/microchip/xc32/v5.00/bin/bin/../../lib/gcc/pic32m/13.2.1/../../../../pic32m/lib/libpic32.a(vector16.o)
                              /tmp/ccZ3wfy0.o (__vector_dispatch_16)
/opt/microchip/xc32/v5.00/bin/bin/../../lib/gcc/pic32m/13.2.1/../../../../pic32m/lib/libpic32.a(vector17.o)
                              /tmp/ccZ3wfy0.o (__vector_dispatch_17)
/opt/microchip/xc32/v5.00/bin/bin/../../lib/gcc/pic32m/13.2.1/../../../../pic32m/lib/libpic32.a(vector18.o)
                              /tmp/ccZ3wfy0.o (__vector_dispatch_18)
/opt/microchip/xc32/v5.00/bin/bin/../../lib/gcc/pic32m/13.2.1/../../../../pic32m/lib/libpic32.a(vector19.o)
                              /tmp/ccZ3wfy0.o (__vector_dispatch_19)
/opt/microchip/xc32/v5.00/bin/bin/../../lib/gcc/pic32m/13.2.1/../../../../pic32m/lib/libpic32.a(vector20.o)
                              /tmp/ccZ3wfy0.o (__vector_dispatch_20)
/opt/microchip/xc32/v5.00/bin/bin/../../lib/gcc/pic32m/13.2.1/../../../../pic32m/lib/libpic32.a(vector21.o)
                              /tmp/ccZ3wfy0.o (__vector_dispatch_21)
/opt/microchip/xc32/v5.00/bin/bin/../../lib/gcc/pic32m/13.2.1/../../../../pic32m/lib/libpic32.a(vector22.o)
                              /tmp/ccZ3wfy0.o (__vector_dispatch_22)
/opt/microchip/xc32/v5.00/bin/bin/../../lib/gcc/pic32m/13.2.1/../../../../pic32m/lib/libpic32.a(vector23.o)
                              /tmp/ccZ3wfy0.o (__vector_dispatch_23)
/opt/microchip/xc32/v5.00/bin/bin/../../lib/gcc/pic32m/13.2.1/../../../../pic32m/lib/libpic32.a(vector24.o)
                              /tmp/ccZ3wfy0.o (__vector_dispatch_24)
/opt/microchip/xc32/v5.00/bin/bin/../../lib/gcc/pic32m/13.2.1/../../../../pic32m/lib/libpic32.a(vector25.o)
                              /tmp/ccZ3wfy0.o (__vector_dispatch_25)
/opt/microchip/xc32/v5.00/bin/bin/../../lib/gcc/pic32m/13.2.1/../../../../pic32m/lib/libpic32.a(vector26.o)
                              /tmp/ccZ3wfy0.o (__vector_dispatch_26)
/opt/microchip/xc32/v5.00/bin/bin/../../lib/gcc/pic32m/13.2.1/../../../../pic32m/lib/libpic32.a(vector27.o)
                              /tmp/ccZ3wfy0.o (__vector_dispatch_27)
/opt/microchip/xc32/v5.00/bin/bin/../../lib/gcc/pic32m/13.2.1/../../../../pic32m/lib/libpic32.a(vector28.o)
                              /tmp/ccZ3wfy0.o (__vector_dispatch_28)
/opt/microchip/xc32/v5.00/bin/bin/../../lib/gcc/pic32m/13.2.1/../../../../pic32m/lib/libpic32.a(vector29.o)
                              /tmp/ccZ3wfy0.o (__vector_dispatch_29)
/opt/microchip/xc32/v5.00/bin/bin/../../lib/gcc/pic32m/13.2.1/../../../../pic32m/lib/libpic32.a(vector30.o)
                              /tmp/ccZ3wfy0.o (__vector_dispatch_30)
/opt/microchip/xc32/v5.00/bin/bin/../../lib/gcc/pic32m/13.2.1/../../../../pic32m/lib/libpic32.a(vector31.o)
                              /tmp/ccZ3wfy0.o (__vector_dispatch_31)
/opt/microchip/xc32/v5.00/bin/bin/../../lib/gcc/pic32m/13.2.1/../../../../pic32m/lib/libpic32.a(vector32.o)
                              /tmp/ccZ3wfy0.o (__vector_dispatch_32)
/opt/microchip/xc32/v5.00/bin/bin/../../lib/gcc/pic32m/13.2.1/../../../../pic32m/lib/libpic32.a(vector33.o)
                              /tmp/ccZ3wfy0.o (__vector_dispatch_33)
/opt/microchip/xc32/v5.00/bin/bin/../../lib/gcc/pic32m/13.2.1/../../../../pic32m/lib/libpic32.a(vector34.o)
                              /tmp/ccZ3wfy0.o (__vector_dispatch_34)
/opt/microchip/xc32/v5.00/bin/bin/../../lib/gcc/pic32m/13.2.1/../../../../pic32m/lib/libpic32.a(vector35.o)
                              /tmp/ccZ3wfy0.o (__vector_dispatch_35)
/opt/microchip/xc32/v5.00/bin/bin/../../lib/gcc/pic32m/13.2.1/../../../../pic32m/lib/libpic32.a(vector36.o)
                              /tmp/ccZ3wfy0.o (__vector_dispatch_36)
/opt/microchip/xc32/v5.00/bin/bin/../../lib/gcc/pic32m/13.2.1/../../../../pic32m/lib/libpic32.a(vector37.o)
                              /tmp/ccZ3wfy0.o (__vector_dispatch_37)
/opt/microchip/xc32/v5.00/bin/bin/../../lib/gcc/pic32m/13.2.1/../../../../pic32m/lib/libpic32.a(vector38.o)
                              /tmp/ccZ3wfy0.o (__vector_dispatch_38)
/opt/microchip/xc32/v5.00/bin/bin/../../lib/gcc/pic32m/13.2.1/../../../../pic32m/lib/libpic32.a(vector39.o)
                              /tmp/ccZ3wfy0.o (__vector_dispatch_39)
/opt/microchip/xc32/v5.00/bin/bin/../../lib/gcc/pic32m/13.2.1/../../../../pic32m/lib/libpic32.a(vector40.o)
                              /tmp/ccZ3wfy0.o (__vector_dispatch_40)
/opt/microchip/xc32/v5.00/bin/bin/../../lib/gcc/pic32m/13.2.1/../../../../pic32m/lib/libpic32.a(vector41.o)
                              /tmp/ccZ3wfy0.o (__vector_dispatch_41)
/opt/microchip/xc32/v5.00/bin/bin/../../lib/gcc/pic32m/13.2.1/../../../../pic32m/lib/libpic32.a(vector42.o)
                              /tmp/ccZ3wfy0.o (__vector_dispatch_42)
/opt/microchip/xc32/v5.00/bin/bin/../../lib/gcc/pic32m/13.2.1/../../../../pic32m/lib/libpic32.a(vector43.o)
                              /tmp/ccZ3wfy0.o (__vector_dispatch_43)
/opt/microchip/xc32/v5.00/bin/bin/../../lib/gcc/pic32m/13.2.1/../../../../pic32m/lib/libpic32.a(default-general-exception-handler.o)
                              /opt/microchip/xc32/v5.00/bin/bin/../../lib/gcc/pic32m/13.2.1/../../../../pic32m/lib/libpic32.a(general-exception.o) (_general_exception_handler)
/opt/microchip/xc32/v5.00/bin/bin/../../lib/gcc/pic32m/13.2.1/../../../../pic32m/lib/libpic32.a(defaultinterrupt.o)
                              /opt/microchip/xc32/v5.00/bin/bin/../../lib/gcc/pic32m/13.2.1/../../../../pic32m/lib/libpic32.a(vector1.o) (_DefaultInterrupt)
/opt/microchip/xc32/v5.00/bin/bin/../../lib/gcc/pic32m/13.2.1/../../../../pic32m/lib/libc-musl.a(assert.o)
                              build/default/production/ProjectSource/main.o (__assert_fail)
/opt/microchip/xc32/v5.00/bin/bin/../../lib/gcc/pic32m/13.2.1/../../../../pic32m/lib/libc-musl.a(abort.o)
                              /opt/microchip/xc32/v5.00/bin/bin/../../lib/gcc/pic32m/13.2.1/../../../../pic32m/lib/libc-musl.a(assert.o) (abort)
/opt/microchip/xc32/v5.00/bin/bin/../../lib/gcc/pic32m/13.2.1/../../../../pic32m/lib/libc-musl.a(fprintf.o)
                              /opt/microchip/xc32/v5.00/bin/bin/../../lib/gcc/pic32m/13.2.1/../../../../pic32m/lib/libc-musl.a(assert.o) (fprintf)
/opt/microchip/xc32/v5.00/bin/bin/../../lib/gcc/pic32m/13.2.1/../../../../pic32m/lib/libc-musl.a(fflush.o)
                              /opt/microchip/xc32/v5.00/bin/bin/../../lib/gcc/pic32m/13.2.1/../../../../pic32m/lib/libc-musl.a(assert.o) (fflush)
/opt/microchip/xc32/v5.00/bin/bin/../../lib/gcc/pic32m/13.2.1/../../../../pic32m/lib/libc-musl.a(vfprintf.o)
                              /opt/microchip/xc32/v5.00/bin/bin/../../lib/gcc/pic32m/13.2.1/../../../../pic32m/lib/libc-musl.a(fprintf.o) (vfprintf)
/opt/microchip/xc32/v5.00/bin/bin/../../lib/gcc/pic32m/13.2.1/../../../../pic32m/lib/libc-musl.a(stderr.o)
                              /opt/microchip/xc32/v5.00/bin/bin/../../lib/gcc/pic32m/13.2.1/../../../../pic32m/lib/libc-musl.a(assert.o) (_stderr)
/opt/microchip/xc32/v5.00/bin/bin/../../lib/gcc/pic32m/13.2.1/../../../../pic32m/lib/libc-musl.a(putchar.o)
                              build/default/production/FrameworkSource/dbprintf.o (putchar)
/opt/microchip/xc32/v5.00/bin/bin/../../lib/gcc/pic32m/13.2.1/../../../../pic32m/lib/libc-musl.a(puts.o)
                              build/default/production/ProjectSource/TestHarnessService0.o (puts)
/opt/microchip/xc32/v5.00/bin/bin/../../lib/gcc/pic32m/13.2.1/../../../../pic32m/lib/libc-musl.a(_Exit.o)
                              /opt/microchip/xc32/v5.00/bin/bin/../../lib/gcc/pic32m/13.2.1/../../../../pic32m/lib/libc-musl.a(abort.o) (_Exit)
/opt/microchip/xc32/v5.00/bin/bin/../../lib/gcc/pic32m/13.2.1/../../../../pic32m/lib/libc-musl.a(fputs.o)
                              /opt/microchip/xc32/v5.00/bin/bin/../../lib/gcc/pic32m/13.2.1/../../../../pic32m/lib/libc-musl.a(puts.o) (fputs)
/opt/microchip/xc32/v5.00/bin/bin/../../lib/gcc/pic32m/13.2.1/../../../../pic32m/lib/libc-musl.a(__io_fmt_needed.o)
                              /opt/microchip/xc32/v5.00/bin/bin/../../lib/gcc/pic32m/13.2.1/../../../../pic32m/lib/libc-musl.a(vfprintf.o) (__io_fmt_needed)
/opt/microchip/xc32/v5.00/bin/bin/../../lib/gcc/pic32m/13.2.1/../../../../pic32m/lib/libc-musl.a(__io_init_needed.o)
                              /opt/microchip/xc32/v5.00/bin/bin/../../lib/gcc/pic32m/13.2.1/../../../../pic32m/lib/libc-musl.a(stderr.o) (__io_init_needed)
/opt/microchip/xc32/v5.00/bin/bin/../../lib/gcc/pic32m/13.2.1/../../../../pic32m/lib/libc-musl.a(__out.o)
                              /opt/microchip/xc32/v5.00/bin/bin/../../lib/gcc/pic32m/13.2.1/../../../../pic32m/lib/libc-musl.a(stderr.o) (__stdio_write_unbuffered)
/opt/microchip/xc32/v5.00/bin/bin/../../lib/gcc/pic32m/13.2.1/../../../../pic32m/lib/libc-musl.a(__pop_float.o)
                              /opt/microchip/xc32/v5.00/bin/bin/../../lib/gcc/pic32m/13.2.1/../../../../pic32m/lib/libc-musl.a(__io_fmt_needed.o) (__pop_float_needed)
/opt/microchip/xc32/v5.00/bin/bin/../../lib/gcc/pic32m/13.2.1/../../../../pic32m/lib/libc-musl.a(__pop_int.o)
                              /opt/microchip/xc32/v5.00/bin/bin/../../lib/gcc/pic32m/13.2.1/../../../../pic32m/lib/libc-musl.a(__io_fmt_needed.o) (__pop_int_needed)
/opt/microchip/xc32/v5.00/bin/bin/../../lib/gcc/pic32m/13.2.1/../../../../pic32m/lib/libc-musl.a(__pop_ptr.o)
                              /opt/microchip/xc32/v5.00/bin/bin/../../lib/gcc/pic32m/13.2.1/../../../../pic32m/lib/libc-musl.a(__io_fmt_needed.o) (__pop_ptr_needed)
/opt/microchip/xc32/v5.00/bin/bin/../../lib/gcc/pic32m/13.2.1/../../../../pic32m/lib/libc-musl.a(__printf_core.o)
                              /opt/microchip/xc32/v5.00/bin/bin/../../lib/gcc/pic32m/13.2.1/../../../../pic32m/lib/libc-musl.a(vfprintf.o) (__printf_core)
/opt/microchip/xc32/v5.00/bin/bin/../../lib/gcc/pic32m/13.2.1/../../../../pic32m/lib/libc-musl.a(__stdio_close.o)
                              /opt/microchip/xc32/v5.00/bin/bin/../../lib/gcc/pic32m/13.2.1/../../../../pic32m/lib/libc-musl.a(stderr.o) (__stdio_close_rw)
/opt/microchip/xc32/v5.00/bin/bin/../../lib/gcc/pic32m/13.2.1/../../../../pic32m/lib/libc-musl.a(fwrite.o)
                              /opt/microchip/xc32/v5.00/bin/bin/../../lib/gcc/pic32m/13.2.1/../../../../pic32m/lib/libc-musl.a(fputs.o) (fwrite)
/opt/microchip/xc32/v5.00/bin/bin/../../lib/gcc/pic32m/13.2.1/../../../../pic32m/lib/libc-musl.a(putc.o)
                              /opt/microchip/xc32/v5.00/bin/bin/../../lib/gcc/pic32m/13.2.1/../../../../pic32m/lib/libc-musl.a(putchar.o) (fputc)
/opt/microchip/xc32/v5.00/bin/bin/../../lib/gcc/pic32m/13.2.1/../../../../pic32m/lib/libc-musl.a(stdout.o)
                              /opt/microchip/xc32/v5.00/bin/bin/../../lib/gcc/pic32m/13.2.1/../../../../pic32m/lib/libc-musl.a(putchar.o) (_stdout)
/opt/microchip/xc32/v5.00/bin/bin/../../lib/gcc/pic32m/13.2.1/../../../../pic32m/lib/libc-musl.a(atoi.o)
                              /opt/microchip/xc32/v5.00/bin/bin/../../lib/gcc/pic32m/13.2.1/../../../../pic32m/lib/libc-musl.a(__printf_core.o) (atoi)
/opt/microchip/xc32/v5.00/bin/bin/../../lib/gcc/pic32m/13.2.1/../../../../pic32m/lib/libc-musl.a(tolower.o)
                              /opt/microchip/xc32/v5.00/bin/bin/../../lib/gcc/pic32m/13.2.1/../../../../pic32m/lib/libc-musl.a(__printf_core.o) (tolower)
/opt/microchip/xc32/v5.00/bin/bin/../../lib/gcc/pic32m/13.2.1/../../../../pic32m/lib/libc-musl.a(__fmt_a.o)
                              /opt/microchip/xc32/v5.00/bin/bin/../../lib/gcc/pic32m/13.2.1/../../../../pic32m/lib/libc-musl.a(__io_fmt_needed.o) (__fmt_a_needed)
/opt/microchip/xc32/v5.00/bin/bin/../../lib/gcc/pic32m/13.2.1/../../../../pic32m/lib/libc-musl.a(__fmt_d.o)
                              /opt/microchip/xc32/v5.00/bin/bin/../../lib/gcc/pic32m/13.2.1/../../../../pic32m/lib/libc-musl.a(__io_fmt_needed.o) (__fmt_d_needed)
/opt/microchip/xc32/v5.00/bin/bin/../../lib/gcc/pic32m/13.2.1/../../../../pic32m/lib/libc-musl.a(__fmt_fp.o)
                              /opt/microchip/xc32/v5.00/bin/bin/../../lib/gcc/pic32m/13.2.1/../../../../pic32m/lib/libc-musl.a(__io_fmt_needed.o) (__fmt_f_needed)
/opt/microchip/xc32/v5.00/bin/bin/../../lib/gcc/pic32m/13.2.1/../../../../pic32m/lib/libc-musl.a(__fmt_o.o)
                              /opt/microchip/xc32/v5.00/bin/bin/../../lib/gcc/pic32m/13.2.1/../../../../pic32m/lib/libc-musl.a(__io_fmt_needed.o) (__fmt_o_needed)
/opt/microchip/xc32/v5.00/bin/bin/../../lib/gcc/pic32m/13.2.1/../../../../pic32m/lib/libc-musl.a(__fmt_s.o)
                              /opt/microchip/xc32/v5.00/bin/bin/../../lib/gcc/pic32m/13.2.1/../../../../pic32m/lib/libc-musl.a(__io_fmt_needed.o) (__fmt_s_needed)
/opt/microchip/xc32/v5.00/bin/bin/../../lib/gcc/pic32m/13.2.1/../../../../pic32m/lib/libc-musl.a(__fmt_u.o)
                              /opt/microchip/xc32/v5.00/bin/bin/../../lib/gcc/pic32m/13.2.1/../../../../pic32m/lib/libc-musl.a(__io_fmt_needed.o) (__fmt_u_needed)
/opt/microchip/xc32/v5.00/bin/bin/../../lib/gcc/pic32m/13.2.1/../../../../pic32m/lib/libc-musl.a(__fmt_x.o)
                              /opt/microchip/xc32/v5.00/bin/bin/../../lib/gcc/pic32m/13.2.1/../../../../pic32m/lib/libc-musl.a(__io_fmt_needed.o) (__fmt_x_needed)
/opt/microchip/xc32/v5.00/bin/bin/../../lib/gcc/pic32m/13.2.1/../../../../pic32m/lib/libc-musl.a(__init_stdio.o)
                              /opt/microchip/xc32/v5.00/bin/bin/../../lib/gcc/pic32m/13.2.1/../../../../pic32m/lib/libc-musl.a(__io_init_needed.o) (__init_stdio_needed)
/opt/microchip/xc32/v5.00/bin/bin/../../lib/gcc/pic32m/13.2.1/../../../../pic32m/lib/libc-musl.a(__io_file_needed.o)
                              /opt/microchip/xc32/v5.00/bin/bin/../../lib/gcc/pic32m/13.2.1/../../../../pic32m/lib/libc-musl.a(__io_init_needed.o) (__io_file_needed)
/opt/microchip/xc32/v5.00/bin/bin/../../lib/gcc/pic32m/13.2.1/../../../../pic32m/lib/libc-musl.a(toupper.o)
                              /opt/microchip/xc32/v5.00/bin/bin/../../lib/gcc/pic32m/13.2.1/../../../../pic32m/lib/libc-musl.a(__fmt_a.o) (toupper)
/opt/microchip/xc32/v5.00/bin/bin/../../lib/gcc/pic32m/13.2.1/../../../../pic32m/lib/libc-musl.a(__cvt_u.o)
                              /opt/microchip/xc32/v5.00/bin/bin/../../lib/gcc/pic32m/13.2.1/../../../../pic32m/lib/libc-musl.a(__fmt_d.o) (__cvt_u)
/opt/microchip/xc32/v5.00/bin/bin/../../lib/gcc/pic32m/13.2.1/../../../../pic32m/lib/libm.a(floor32.o)
                              /opt/microchip/xc32/v5.00/bin/bin/../../lib/gcc/pic32m/13.2.1/../../../../pic32m/lib/libc-musl.a(__fmt_a.o) (floor)
/opt/microchip/xc32/v5.00/bin/bin/../../lib/gcc/pic32m/13.2.1/../../../../pic32m/lib/libm.a(dp32div.o)
                              /opt/microchip/xc32/v5.00/bin/bin/../../lib/gcc/pic32m/13.2.1/../../../../pic32m/lib/libc-musl.a(__fmt_a.o) (__divdf3)
/opt/microchip/xc32/v5.00/bin/bin/../../lib/gcc/pic32m/13.2.1/../../../../pic32m/lib/libm.a(dp32mul.o)
                              /opt/microchip/xc32/v5.00/bin/bin/../../lib/gcc/pic32m/13.2.1/../../../../pic32m/lib/libc-musl.a(__fmt_a.o) (__muldf3)
/opt/microchip/xc32/v5.00/bin/bin/../../lib/gcc/pic32m/13.2.1/../../../../pic32m/lib/libm.a(dp32subadd.o)
                              /opt/microchip/xc32/v5.00/bin/bin/../../lib/gcc/pic32m/13.2.1/../../../../pic32m/lib/libc-musl.a(__fmt_a.o) (__subdf3)
/opt/microchip/xc32/v5.00/bin/bin/../../lib/gcc/pic32m/13.2.1/../../../../pic32m/lib/libm.a(dpcmp.o)
                              /opt/microchip/xc32/v5.00/bin/bin/../../lib/gcc/pic32m/13.2.1/../../../../pic32m/lib/libc-musl.a(__fmt_a.o) (__eqdf2)
/opt/microchip/xc32/v5.00/bin/bin/../../lib/gcc/pic32m/13.2.1/../../../../pic32m/lib/libm.a(dpcmplt.o)
                              /opt/microchip/xc32/v5.00/bin/bin/../../lib/gcc/pic32m/13.2.1/../../../../pic32m/lib/libc-musl.a(__fmt_fp.o) (__ledf2)
/opt/microchip/xc32/v5.00/bin/bin/../../lib/gcc/pic32m/13.2.1/../../../../pic32m/lib/libm.a(dptoli.o)
                              /opt/microchip/xc32/v5.00/bin/bin/../../lib/gcc/pic32m/13.2.1/../../../../pic32m/lib/libc-musl.a(__fmt_a.o) (__fixdfsi)
/opt/microchip/xc32/v5.00/bin/bin/../../lib/gcc/pic32m/13.2.1/../../../../pic32m/lib/libm.a(fp32div.o)
                              build/default/production/ProjectSource/CommonDefinitions.o (__divsf3)
/opt/microchip/xc32/v5.00/bin/bin/../../lib/gcc/pic32m/13.2.1/../../../../pic32m/lib/libm.a(fp32mul.o)
                              build/default/production/ProjectSource/CommonDefinitions.o (__mulsf3)
/opt/microchip/xc32/v5.00/bin/bin/../../lib/gcc/pic32m/13.2.1/../../../../pic32m/lib/libm.a(fp32subadd.o)
                              /opt/microchip/xc32/v5.00/bin/bin/../../lib/gcc/pic32m/13.2.1/libgcc.a(floatunsisf.o) (__addsf3)
/opt/microchip/xc32/v5.00/bin/bin/../../lib/gcc/pic32m/13.2.1/../../../../pic32m/lib/libm.a(sitofp.o)
                              /opt/microchip/xc32/v5.00/bin/bin/../../lib/gcc/pic32m/13.2.1/libgcc.a(floatunsisf.o) (__floatsisf)
/opt/microchip/xc32/v5.00/bin/bin/../../lib/gcc/pic32m/13.2.1/../../../../pic32m/lib/libm-musl.a(fma.o)
                              /opt/microchip/xc32/v5.00/bin/bin/../../lib/gcc/pic32m/13.2.1/../../../../pic32m/lib/libc-musl.a(__fmt_fp.o) (fma)
/opt/microchip/xc32/v5.00/bin/bin/../../lib/gcc/pic32m/13.2.1/../../../../pic32m/lib/libm-musl.a(scalbn.o)
                              /opt/microchip/xc32/v5.00/bin/bin/../../lib/gcc/pic32m/13.2.1/../../../../pic32m/lib/libm-musl.a(fma.o) (scalbn)
/opt/microchip/xc32/v5.00/bin/bin/../../lib/gcc/pic32m/13.2.1/../../../../pic32m/lib/libpic32.a(_exit.o)
                              /opt/microchip/xc32/v5.00/bin/bin/../../lib/gcc/pic32m/13.2.1/../../../../pic32m/lib/libc-musl.a(_Exit.o) (_exit)
/opt/microchip/xc32/v5.00/bin/bin/../../lib/gcc/pic32m/13.2.1/../../../../pic32m/lib/libpic32.a(write.o)
                              /opt/microchip/xc32/v5.00/bin/bin/../../lib/gcc/pic32m/13.2.1/../../../../pic32m/lib/libc-musl.a(__out.o) (write)
/opt/microchip/xc32/v5.00/bin/bin/../../lib/gcc/pic32m/13.2.1/../../../../pic32m/lib/libpic32.a(lseek.o)
                              /opt/microchip/xc32/v5.00/bin/bin/../../lib/gcc/pic32m/13.2.1/../../../../pic32m/lib/libc-musl.a(__stdio_close.o) (lseek)
/opt/microchip/xc32/v5.00/bin/bin/../../lib/gcc/pic32m/13.2.1/../../../../pic32m/lib/libpic32.a(close.o)
                              /opt/microchip/xc32/v5.00/bin/bin/../../lib/gcc/pic32m/13.2.1/../../../../pic32m/lib/libc-musl.a(__stdio_close.o) (close)
/opt/microchip/xc32/v5.00/bin/bin/../../lib/gcc/pic32m/13.2.1/../../../../pic32m/lib/libpic32.a(errno.o)
                              /opt/microchip/xc32/v5.00/bin/bin/../../lib/gcc/pic32m/13.2.1/../../../../pic32m/lib/libc-musl.a(__printf_core.o) (errno)
/opt/microchip/xc32/v5.00/bin/bin/../../lib/gcc/pic32m/13.2.1/../../../../pic32m/lib/libc-size-musl.a(memcpy.o)
                              /opt/microchip/xc32/v5.00/bin/bin/../../lib/gcc/pic32m/13.2.1/../../../../pic32m/lib/libc-musl.a(__out.o) (memcpy)
/opt/microchip/xc32/v5.00/bin/bin/../../lib/gcc/pic32m/13.2.1/../../../../pic32m/lib/libc-size-musl.a(memset.o)
                              /opt/microchip/xc32/v5.00/bin/bin/../../lib/gcc/pic32m/13.2.1/../../../../pic32m/lib/libc-musl.a(__printf_core.o) (memset)
/opt/microchip/xc32/v5.00/bin/bin/../../lib/gcc/pic32m/13.2.1/../../../../pic32m/lib/libc-size-musl.a(strlen.o)
                              /opt/microchip/xc32/v5.00/bin/bin/../../lib/gcc/pic32m/13.2.1/../../../../pic32m/lib/libc-musl.a(fputs.o) (strlen)
/opt/microchip/xc32/v5.00/bin/bin/../../lib/gcc/pic32m/13.2.1/../../../../pic32m/lib/libc-size-musl.a(strcpy.o)
                              /opt/microchip/xc32/v5.00/bin/bin/../../lib/gcc/pic32m/13.2.1/../../../../pic32m/lib/libc-musl.a(__fmt_a.o) (strcpy)
/opt/microchip/xc32/v5.00/bin/bin/../../lib/gcc/pic32m/13.2.1/../../../../pic32m/lib/libc-size-musl.a(stpcpy.o)
                              /opt/microchip/xc32/v5.00/bin/bin/../../lib/gcc/pic32m/13.2.1/../../../../pic32m/lib/libc-size-musl.a(strcpy.o) (__stpcpy)
/opt/microchip/xc32/v5.00/bin/bin/../../lib/gcc/pic32m/13.2.1/../../../../pic32m/lib/libm.a(dptofp.o)
                              /opt/microchip/xc32/v5.00/bin/bin/../../lib/gcc/pic32m/13.2.1/../../../../pic32m/lib/libm-musl.a(fma.o) (__truncdfsf2)
/opt/microchip/xc32/v5.00/bin/bin/../../lib/gcc/pic32m/13.2.1/../../../../pic32m/lib/libm.a(fptodp.o)
                              /opt/microchip/xc32/v5.00/bin/bin/../../lib/gcc/pic32m/13.2.1/../../../../pic32m/lib/libm-musl.a(fma.o) (__extendsfdf2)
/opt/microchip/xc32/v5.00/bin/bin/../../lib/gcc/pic32m/13.2.1/../../../../pic32m/lib/libe.a(_floatdidf.o)
                              /opt/microchip/xc32/v5.00/bin/bin/../../lib/gcc/pic32m/13.2.1/../../../../pic32m/lib/libm-musl.a(fma.o) (__floatdidf)
/opt/microchip/xc32/v5.00/bin/bin/../../lib/gcc/pic32m/13.2.1/libgcc.a(_lshrdi3.o)
                              /opt/microchip/xc32/v5.00/bin/bin/../../lib/gcc/pic32m/13.2.1/../../../../pic32m/lib/libm-musl.a(fma.o) (__lshrdi3)
/opt/microchip/xc32/v5.00/bin/bin/../../lib/gcc/pic32m/13.2.1/libgcc.a(_ashldi3.o)
                              /opt/microchip/xc32/v5.00/bin/bin/../../lib/gcc/pic32m/13.2.1/../../../../pic32m/lib/libm-musl.a(fma.o) (__ashldi3)
/opt/microchip/xc32/v5.00/bin/bin/../../lib/gcc/pic32m/13.2.1/libgcc.a(_udivdi3.o)
                              /opt/microchip/xc32/v5.00/bin/bin/../../lib/gcc/pic32m/13.2.1/../../../../pic32m/lib/libc-musl.a(__cvt_u.o) (__udivdi3)
/opt/microchip/xc32/v5.00/bin/bin/../../lib/gcc/pic32m/13.2.1/libgcc.a(_umoddi3.o)
                              /opt/microchip/xc32/v5.00/bin/bin/../../lib/gcc/pic32m/13.2.1/../../../../pic32m/lib/libc-musl.a(__cvt_u.o) (__umoddi3)

Optional file libmchp_peripheral.a not found

Optional file libmchp_peripheral_32MX170F256B.a not found
/opt/microchip/xc32/v5.00/bin/bin/../../lib/gcc/pic32m/13.2.1/../../../../pic32m/lib/libpic32.a(pic32_data_init_clear.o)
                              (__dinit_clear_needed)
/opt/microchip/xc32/v5.00/bin/bin/../../lib/gcc/pic32m/13.2.1/../../../../pic32m/lib/libpic32.a(pic32_data_init_copy.o)
                              (__dinit_copy_needed)

Optional file libmchp_peripheral.a not found

Optional file libmchp_peripheral_32MX170F256B.a not found

Microchip PIC32 Memory-Usage Report

kseg0 Program-Memory Usage
section                    address  length [bytes]      (dec)  Description
-------                 ----------  -------------------------  -----------
.text                   0x9d000000         0x1d10        7440  App's exec code 
.text.__fmt_fp          0x9d001d10          0x87c        2172   
.text.__fmt_a           0x9d00258c          0x82c        2092   
.text.fma               0x9d002db8          0x740        1856   
.text                   0x9d0034f8          0x5f4        1524  App's exec code 
.text.__printf_core     0x9d003aec          0x5e8        1512   
.text.dp32mul           0x9d0040d4          0x504        1284   
.text                   0x9d0045d8         0x12ec        4844  App's exec code 
.text.dp32subadd        0x9d0058c4          0x488        1160   
.text                   0x9d005d4c         0x1660        5728  App's exec code 
.text.dp32mul           0x9d0073ac          0x364         868   
.text.fpsubadd          0x9d007710          0x2b0         688   
.rodata                 0x9d0079c0          0x2a4         676  Read-only const 
.text                   0x9d007c64          0x298         664  App's exec code 
.rodata                 0x9d007efc          0x26f         623  Read-only const 
.text                   0x9d00816c          0x264         612  App's exec code 
.text.fp32div           0x9d0083d0          0x258         600   
.text                   0x9d008628          0x24c         588  App's exec code 
.text.__fmt_x           0x9d008874          0x204         516   
.text.__floatdidf       0x9d008a78          0x1f4         500   
.dinit                  0x9d008c6c          0x1e0         480   
.text                   0x9d008e4c          0x1dc         476  App's exec code 
.text.fp32mul           0x9d009028          0x1dc         476   
.text                   0x9d009204          0x33c         828  App's exec code 
.text.__pop_int         0x9d009540          0x188         392   
.text.dpcmp             0x9d0096c8          0x160         352   
.text.dfcmplt           0x9d009828          0x160         352   
.text.__fmt_d           0x9d009988          0x158         344   
.rodata                 0x9d009ae0          0x14d         333  Read-only const 
.text.__cvt_u           0x9d009c30          0x138         312   
.text                   0x9d009d68          0x12c         300  App's exec code 
.text.__pop_ptr         0x9d009e94          0x12c         300   
.text                   0x9d009fc0          0x118         280  App's exec code 
.text.dptofp            0x9d00a0d8          0x110         272   
.text.__pad             0x9d00a1e8           0xfc         252   
.text.__fmt_o           0x9d00a2e4           0xf4         244   
.text.scalbn            0x9d00a3d8           0xf0         240   
.text.general_exception 0x9d00a4c8           0xdc         220   
.text.__stdio_close_rw  0x9d00a5a4           0xd0         208   
.text.write             0x9d00a674           0xd0         208   
.text                   0x9d00a744           0xc4         196  App's exec code 
.text.__fmt_u           0x9d00a808           0xbc         188   
.text.fptodp            0x9d00a8c4           0xb0         176   
.text.__stdio_close     0x9d00a974           0xa8         168   
.text                   0x9d00aa1c           0xa4         164  App's exec code 
.text.__fmt_s           0x9d00aac0           0xa4         164   
.text.normalize         0x9d00ab64           0xa0         160   
.text.dptoli            0x9d00ac04           0x9c         156   
.text                   0x9d00aca0           0x88         136  App's exec code 
.text.__out             0x9d00ad28           0x88         136   
.rodata                 0x9d00adb0           0x85         133  Read-only const 
.rodata                 0x9d00ae38           0x85         133  Read-only const 
.text                   0x9d00aec0           0x7c         124  App's exec code 
.text.atoi              0x9d00af3c           0x7c         124   
.text.a_clz_64          0x9d00afb8           0x6c         108   
.rodata.cst8            0x9d00b028           0x68         104   
.text.__putc_unbuffered 0x9d00b090           0x64         100   
.text.sitofp            0x9d00b0f4           0x64         100   
.text.__string_out      0x9d00b158           0x60          96   
.text.fwrite            0x9d00b1b8           0x60          96   
.text.fputs             0x9d00b218           0x5c          92   
.text.__pop_float       0x9d00b274           0x58          88   
.text.__fmt_state       0x9d00b2cc           0x58          88   
.text.main_entry        0x9d00b324           0x54          84   
.text.fflush            0x9d00b378           0x54          84   
.text.puts              0x9d00b3cc           0x4c          76   
.text                   0x9d00b418           0x48          72  App's exec code 
.text._bootstrap_except 0x9d00b460           0x48          72   
.text._general_exceptio 0x9d00b4a8           0x48          72   
.vector_default         0x9d00b4f0           0x48          72   
.text                   0x9d00b538           0x44          68  App's exec code 
.text.__assert_fail     0x9d00b57c           0x44          68   
.rodata                 0x9d00b5c0           0x80         128  Read-only const 
.rodata.str1.4          0x9d00b640           0x40          64   
.rodata                 0x9d00b680           0x3d          61  Read-only const 
.text.vfprintf          0x9d00b6c0           0x3c          60   
.text                   0x9d00b6fc           0x78         120  App's exec code 
.rodata                 0x9d00b774           0x2f          47  Read-only const 
.rodata                 0x9d00b7a4           0x2f          47  Read-only const 
.text.__init_stderr     0x9d00b7d4           0x2c          44   
.text.memcpy            0x9d00b800           0x2c          44   
.text.strlen            0x9d00b82c           0x2c          44   
.text.fprintf           0x9d00b858           0x28          40   
.text.memset            0x9d00b880           0x28          40   
.text.strcpy            0x9d00b8a8           0x28          40   
.rodata                 0x9d00b8d0           0x24          36  Read-only const 
.text.__init_stdio      0x9d00b8f4           0x24          36   
.text.__init_stdout     0x9d00b918           0x20          32   
.text.stpcpy            0x9d00b938           0x20          32   
.text                   0x9d00b958           0x20          32  App's exec code 
.text.tolower           0x9d00b978           0x1c          28   
.text.toupper           0x9d00b994           0x1c          28   
.rodata                 0x9d00b9b0           0x19          25  Read-only const 
.MIPS.abiflags          0x9d00b9d0           0x18          24   
.text                   0x9d00b9e8           0x30          48  App's exec code 
.rodata                 0x9d00ba18           0x16          22  Read-only const 
.rodata                 0x9d00ba30           0x14          20  Read-only const 
.text.__abort           0x9d00ba44           0x10          16   
.text.putchar           0x9d00ba54           0x10          16   
.text._Exit             0x9d00ba64           0x10          16   
.rodata                 0x9d00ba74            0xc          12  Read-only const 
.text.__dummy           0x9d00ba80            0xc          12   
.text._on_reset         0x9d00ba8c            0x8           8   
.text._on_bootstrap     0x9d00ba94            0x8           8   
.text.__dummy1          0x9d00ba9c            0x8           8   
.text.__dummy2          0x9d00baa4            0x8           8   
.text.__dummy_seek      0x9d00baac            0x8           8   
.text.__fwrite_min      0x9d00bab4            0x8           8   
.text.__dummy_fmt3      0x9d00babc            0x8           8   
.text.__dummy_fmt4      0x9d00bac4            0x8           8   
.text.__dummy_fmts      0x9d00bacc            0x8           8   
.text.__fwrite_min      0x9d00bad4            0x8           8   
.text.putc              0x9d00badc            0x8           8   
.text.__dummy           0x9d00bae4            0x8           8   
.text.__tolower_l       0x9d00baec            0x8           8   
.text.__dummy           0x9d00baf4            0x8           8   
.text.__toupper_l       0x9d00bafc            0x8           8   
.text._exit             0x9d00bb04            0x8           8   
.text.lseek             0x9d00bb0c            0x8           8   
.text.close             0x9d00bb14            0x8           8   
      Total kseg0_program_mem used  :      0xbb00       47872  18.6% of 0x3f000

Exception-Memory Usage 
section                    address  length [bytes]      (dec)  Description
-------                 ----------  -------------------------  -----------
.app_excpt              0x9d03f180           0x10          16  General-Exception 
.vector_0               0x9d03f200            0x8           8  Interrupt Vector 0 
.vector_1               0x9d03f220            0x8           8  Interrupt Vector 1 
.vector_2               0x9d03f240            0x8           8  Interrupt Vector 2 
.vector_3               0x9d03f260            0x8           8  Interrupt Vector 3 
.vector_4               0x9d03f280            0x8           8  Interrupt Vector 4 
.vector_5               0x9d03f2a0            0x8           8  Interrupt Vector 5 
.vector_6               0x9d03f2c0            0x8           8  Interrupt Vector 6 
.vector_7               0x9d03f2e0            0x8           8  Interrupt Vector 7 
.vector_8               0x9d03f300            0x8           8  Interrupt Vector 8 
.vector_9               0x9d03f320            0x8           8  Interrupt Vector 9 
.vector_10              0x9d03f340            0x8           8  Interrupt Vector 10 
.vector_11              0x9d03f360            0x8           8  Interrupt Vector 11 
.vector_12              0x9d03f380            0x8           8  Interrupt Vector 12 
.vector_13              0x9d03f3a0            0x8           8  Interrupt Vector 13 
.vector_14              0x9d03f3c0            0x8           8  Interrupt Vector 14 
.vector_15              0x9d03f3e0            0x8           8  Interrupt Vector 15 
.vector_16              0x9d03f400            0x8           8  Interrupt Vector 16 
.vector_17              0x9d03f420            0x8           8  Interrupt Vector 17 
.vector_18              0x9d03f440            0x8           8  Interrupt Vector 18 
.vector_19              0x9d03f460            0x8           8  Interrupt Vector 19 
.vector_20              0x9d03f480            0x8           8  Interrupt Vector 20 
.vector_21              0x9d03f4a0            0x8           8  Interrupt Vector 21 
.vector_22              0x9d03f4c0            0x8           8  Interrupt Vector 22 
.vector_23              0x9d03f4e0            0x8           8  Interrupt Vector 23 
.vector_24              0x9d03f500            0x8           8  Interrupt Vector 24 
.vector_25              0x9d03f520            0x8           8  Interrupt Vector 25 
.vector_26              0x9d03f540            0x8           8  Interrupt Vector 26 
.vector_27              0x9d03f560            0x8           8  Interrupt Vector 27 
.vector_28              0x9d03f580            0x8           8  Interrupt Vector 28 
.vector_29              0x9d03f5a0            0x8           8  Interrupt Vector 29 
.vector_30              0x9d03f5c0            0x8           8  Interrupt Vector 30 
.vector_31              0x9d03f5e0            0x8           8  Interrupt Vector 31 
.vector_32              0x9d03f600            0x8           8  Interrupt Vector 32 
.vector_33              0x9d03f620            0x8           8  Interrupt Vector 33 
.vector_34              0x9d03f640            0x8           8  Interrupt Vector 34 
.vector_35              0x9d03f660            0x8           8  Interrupt Vector 35 
.vector_36              0x9d03f680            0x8           8  Interrupt Vector 36 
.vector_37              0x9d03f6a0            0x8           8  Interrupt Vector 37 
.vector_38              0x9d03f6c0            0x8           8  Interrupt Vector 38 
.vector_39              0x9d03f6e0            0x8           8  Interrupt Vector 39 
.vector_40              0x9d03f700            0x8           8  Interrupt Vector 40 
.vector_41              0x9d03f720            0x8           8  Interrupt Vector 41 
.vector_42              0x9d03f740            0x8           8  Interrupt Vector 42 
.vector_43              0x9d03f760            0x8           8  Interrupt Vector 43 
          Total exception_mem used  :       0x170         368  9.0% of 0x1000

kseg1 Boot-Memory Usage
section                    address  length [bytes]      (dec)  Description
-------                 ----------  -------------------------  -----------
.reset                  0xbfc00000          0x178         376  Reset handler 
.bev_excpt              0xbfc00380           0x10          16  BEV-Exception 
         Total kseg1_boot_mem used  :       0x188         392  33.6% of 0x490
        --------------------------------------------------------------------------
         Total Program Memory used  :      0xbdf8       48632  18.5% of 0x40490
        --------------------------------------------------------------------------


Data-Memory Usage
section                    address  length [bytes]      (dec)  Description
-------                 ----------  -------------------------  -----------
.sdata                  0xa0000000            0x8           8  Small init data 
.sbss                   0xa0000008           0x70         112  Small uninit data 
.data                   0xa0000078           0xd0         208  Initialized data 
.data._stderr           0xa0000148            0x4           4   
.data._stdout           0xa000014c            0x4           4   
.bss                    0xa0000150          0x4d4        1236  Uninitialized data 
.bss.errno              0xa0000624            0x4           4   
         Total kseg0/kseg1 data_mem used  :       0x628        1576  2.4% of 0x10000
        --------------------------------------------------------------------------
            Total Data Memory used  :       0x628        1576  2.4% of 0x10000
        --------------------------------------------------------------------------


Dynamic Data-Memory Reservation
section                    address  length [bytes]      (dec)  Description
-------                 ----------  -------------------------  -----------
heap                    0xa0000630           0x10          16  Reserved for heap 
stack                   0xa0000658         0xf9a0       63904  Reserved for stack 

        --------------------------------------------------------------------------

Microchip PIC32 Memory-Usage Report By Module

        text        data         bss         dec         hex    basename                                  filename
--------------------------------------------------------------------------------
        5380           0          16        5396        1514    PIC32_SPI_HAL.o                       build/default/production/ProjectSource/PIC32_SPI_HAL.o
        3359           0           5        3364         d24    MainLogicFSM.o                        build/default/production/ProjectSource/MainLogicFSM.o
        2196           0           0        2196         894    __fmt_a.o                             libc-musl.a
        2172           0           0        2172         87c    __fmt_fp.o                            libc-musl.a
        2124           0           0        2124         84c    fma.o                                 libm-musl.a
        1994           0           0        1994         7ca    __printf_core.o                       libc-musl.a
         939           0        1028        1967         7af    terminal.o                            build/default/production/FrameworkSource/terminal.o
        1657           0          10        1667         683    DCMotorService.o                      build/default/production/ProjectSource/DCMotorService.o
        1276           0         156        1432         598    ES_Framework.o                        build/default/production/FrameworkSource/ES_Framework.o
        1284           0           0        1284         504    dp32div.o                             libm.a
        1277           0           0        1277         4fd    dbprintf.o                            build/default/production/FrameworkSource/dbprintf.o
        1208           0          33        1241         4d9    circular_buffer_no_modulo_threadsafe.obuild/default/production/FrameworkSource/circular_buffer_no_modulo_threadsafe.o
        1233           0           7        1240         4d8    CommandRetrieveService.o              build/default/production/ProjectSource/CommandRetrieveService.o
        1164           0          48        1212         4bc    ES_Timers.o                           build/default/production/FrameworkSource/ES_Timers.o
        1160           0           0        1160         488    dp32subadd.o                          libm.a
         988           0           0         988         3dc    _umoddi3.o                            libgcc.a
         945           0           1         946         3b2    TestHarnessService0.o                 build/default/production/ProjectSource/TestHarnessService0.o
         932           0           0         932         3a4    _udivdi3.o                            libgcc.a
         916           0          13         929         3a1    ES_Port.o                             build/default/production/FrameworkSource/ES_Port.o
         924           0           0         924         39c    ES_Queue.o                            build/default/production/FrameworkSource/ES_Queue.o
         868           0           0         868         364    dp32mul.o                             libm.a
         688           0           0         688         2b0    fp32subadd.o                          libm.a
         664           0           1         665         299    PIC32_AD_Lib.o                        build/default/production/ProjectSource/PIC32_AD_Lib.o
         600           0           0         600         258    fp32div.o                             libm.a
         588           0          12         600         258    ADService.o                           build/default/production/ProjectSource/ADService.o
         545           0           0         545         221    main.o                                build/default/production/ProjectSource/main.o
         516           0           0         516         204    __fmt_x.o                             libc-musl.a
         500           0           0         500         1f4    _floatdidf.o                          libe.a
         492           0           0         492         1ec    cckmVf8F.o                            /tmp/cckmVf8F.o
         480           0           0         480         1e0    data_init                             data_init
         476           1           1         478         1de    EventCheckers.o                       build/default/production/ProjectSource/EventCheckers.o
         476           0           0         476         1dc    fp32mul.o                             libm.a
         416           0           0         416         1a0    Ports.o                               build/default/production/ProjectSource/Ports.o
         392           0           0         392         188    __pop_int.o                           libc-musl.a
         376           0           0         376         178    __stdio_close.o                       libc-musl.a
         352           0           0         352         160    dpcmplt.o                             libm.a
         352           0           0         352         160    dpcmp.o                               libm.a
         344           0           0         344         158    __fmt_d.o                             libc-musl.a
         336           0           0         336         150    CommonDefinitions.o                   build/default/production/ProjectSource/CommonDefinitions.o
         312           0           0         312         138    __cvt_u.o                             libc-musl.a
         300           0           0         300         12c    __pop_ptr.o                           libc-musl.a
         280           0           0         280         118    floor32.o                             libm.a
         272           0           0         272         110    dptofp.o                              libm.a
         244           0           0         244          f4    __fmt_o.o                             libc-musl.a
         243           0           0         243          f3    ES_LookupTables.o                     build/default/production/FrameworkSource/ES_LookupTables.o
         240           0           0         240          f0    scalbn.o                              libm-musl.a
         220           0           0         220          dc    general-exception.o                   libpic32.a
         208           0           0         208          d0    write.o                               libpic32.a
         200           0           0         200          c8    ES_CheckEvents.o                      build/default/production/FrameworkSource/ES_CheckEvents.o
         188           0           0         188          bc    __fmt_u.o                             libc-musl.a
         176           0           0         176          b0    fptodp.o                              libm.a
          64         108           0         172          ac    stderr.o                              libc-musl.a
         164           0           0         164          a4    __fmt_s.o                             libc-musl.a
         156           0           0         156          9c    dptoli.o                              libm.a
          40         108           0         148          94    stdout.o                              libc-musl.a
         144           0           0         144          90    __out.o                               libc-musl.a
         144           0           0         144          90    pic32_data_init_core.o                libpic32.a
         136           0           0         136          88    ES_DeferRecall.o                      build/default/production/FrameworkSource/ES_DeferRecall.o
         132           0           0         132          84    assert.o                              libc-musl.a
         124           0           0         124          7c    atoi.o                                libc-musl.a
         108           0           0         108          6c    putc.o                                libc-musl.a
         104           0           0         104          68    fwrite.o                              libc-musl.a
         100           0           4         104          68    fflush.o                              libc-musl.a
         100           0           0         100          64    sitofp.o                              libm.a
          92           0           0          92          5c    fputs.o                               libc-musl.a
          88           0           0          88          58    __pop_float.o                         libc-musl.a
          76           0           0          76          4c    puts.o                                libc-musl.a
          72           0           0          72          48    defaultinterrupt.o                    libpic32.a
          72           0           0          72          48    default-general-exception-handler.o   libpic32.a
          72           0           0          72          48    default-bootstrap-exception-handler.o libpic32.a
          72           0           0          72          48    floatunsisf.o                         libgcc.a
          68           0           0          68          44    pic32_software_reset.o                /opt/microchip/xc32/v5.00/bin/bin/../../lib/gcc/pic32m/13.2.1/../../../../pic32m/lib/pic32_software_reset.o
          60           0           0          60          3c    _ashldi3.o                            libgcc.a
          60           0           0          60          3c    _lshrdi3.o                            libgcc.a
          60           0           0          60          3c    vfprintf.o                            libc-musl.a
          44           0           0          44          2c    strlen.o                              libc-size-musl.a
          44           0           0          44          2c    memcpy.o                              libc-size-musl.a
          44           0           0          44          2c    __init_stdio.o                        libc-musl.a
          44           0           0          44          2c    debug-exception-return.o              /opt/microchip/xc32/v5.00/bin/bin/../../lib/gcc/pic32m/13.2.1/../../../../pic32m/lib/debug-exception-return.o
          40           0           0          40          28    strcpy.o                              libc-size-musl.a
          40           0           0          40          28    memset.o                              libc-size-musl.a
          40           0           0          40          28    fprintf.o                             libc-musl.a
          36           0           0          36          24    toupper.o                             libc-musl.a
          36           0           0          36          24    tolower.o                             libc-musl.a
          32           0           0          32          20    pic32_data_init_copy.o                libpic32.a
          32           0           0          32          20    stpcpy.o                              libc-size-musl.a
          24           0           0          24          18    pic32_data_init_clear.o               libpic32.a
          24           0           0          24          18    default-nmi-handler.o                 libpic32.a
          16           0           0          16          10    _Exit.o                               libc-musl.a
          16           0           0          16          10    putchar.o                             libc-musl.a
          16           0           0          16          10    abort.o                               libc-musl.a
           8           0           0           8           8    close.o                               libpic32.a
           8           0           0           8           8    lseek.o                               libpic32.a
           8           0           0           8           8    _exit.o                               libpic32.a
           8           0           0           8           8    vector43.o                            libpic32.a
           8           0           0           8           8    vector42.o                            libpic32.a
           8           0           0           8           8    vector41.o                            libpic32.a
           8           0           0           8           8    vector40.o                            libpic32.a
           8           0           0           8           8    vector39.o                            libpic32.a
           8           0           0           8           8    vector38.o                            libpic32.a
           8           0           0           8           8    vector37.o                            libpic32.a
           8           0           0           8           8    vector36.o                            libpic32.a
           8           0           0           8           8    vector35.o                            libpic32.a
           8           0           0           8           8    vector34.o                            libpic32.a
           8           0           0           8           8    vector33.o                            libpic32.a
           8           0           0           8           8    vector32.o                            libpic32.a
           8           0           0           8           8    vector31.o                            libpic32.a
           8           0           0           8           8    vector30.o                            libpic32.a
           8           0           0           8           8    vector29.o                            libpic32.a
           8           0           0           8           8    vector28.o                            libpic32.a
           8           0           0           8           8    vector27.o                            libpic32.a
           8           0           0           8           8    vector26.o                            libpic32.a
           8           0           0           8           8    vector25.o                            libpic32.a
           8           0           0           8           8    vector24.o                            libpic32.a
           8           0           0           8           8    vector23.o                            libpic32.a
           8           0           0           8           8    vector22.o                            libpic32.a
           8           0           0           8           8    vector21.o                            libpic32.a
           8           0           0           8           8    vector20.o                            libpic32.a
           8           0           0           8           8    vector19.o                            libpic32.a
           8           0           0           8           8    vector18.o                            libpic32.a
           8           0           0           8           8    vector17.o                            libpic32.a
           8           0           0           8           8    vector16.o                            libpic32.a
           8           0           0           8           8    vector15.o                            libpic32.a
           8           0           0           8           8    vector14.o                            libpic32.a
           8           0           0           8           8    vector13.o                            libpic32.a
           8           0           0           8           8    vector12.o                            libpic32.a
           8           0           0           8           8    vector11.o                            libpic32.a
           8           0           0           8           8    vector10.o                            libpic32.a
           8           0           0           8           8    vector9.o                             libpic32.a
           8           0           0           8           8    vector8.o                             libpic32.a
           8           0           0           8           8    vector7.o                             libpic32.a
           8           0           0           8           8    vector6.o                             libpic32.a
           8           0           0           8           8    vector5.o                             libpic32.a
           8           0           0           8           8    vector4.o                             libpic32.a
           8           0           0           8           8    vector3.o                             libpic32.a
           8           0           0           8           8    vector2.o                             libpic32.a
           8           0           0           8           8    vector1.o                             libpic32.a
           8           0           0           8           8    default-on-bootstrap.o                libpic32.a
           8           0           0           8           8    default-on-reset.o                    libpic32.a
           0           0           4           4           4    errno.o                               libpic32.a
           0           4           0           4           4    xc32_uart.o                           libpic32.a
           0           0           0          16          10    padding                               padding
--------------------------------------------------------------------------------
       48692         221        1339       50268        c45c    dist/default/production/ME218B_Lab8.production.elf


Discarded input sections

 .pdr           0x00000000       0x20 build/default/production/FrameworkSource/ES_CheckEvents.o
 .reginfo       0x00000000       0x18 build/default/production/FrameworkSource/ES_DeferRecall.o
 .MIPS.abiflags
                0x00000000       0x18 build/default/production/FrameworkSource/ES_DeferRecall.o
 .pdr           0x00000000       0x20 build/default/production/FrameworkSource/ES_DeferRecall.o
 .reginfo       0x00000000       0x18 build/default/production/FrameworkSource/ES_Framework.o
 .MIPS.abiflags
                0x00000000       0x18 build/default/production/FrameworkSource/ES_Framework.o
 .pdr           0x00000000       0xa0 build/default/production/FrameworkSource/ES_Framework.o
 .reginfo       0x00000000       0x18 build/default/production/FrameworkSource/ES_LookupTables.o
 .MIPS.abiflags
                0x00000000       0x18 build/default/production/FrameworkSource/ES_LookupTables.o
 .pdr           0x00000000       0x20 build/default/production/FrameworkSource/ES_LookupTables.o
 .reginfo       0x00000000       0x18 build/default/production/FrameworkSource/ES_Port.o
 .MIPS.abiflags
                0x00000000       0x18 build/default/production/FrameworkSource/ES_Port.o
 .pdr           0x00000000       0xe0 build/default/production/FrameworkSource/ES_Port.o
 .reginfo       0x00000000       0x18 build/default/production/FrameworkSource/ES_PostList.o
 .MIPS.abiflags
                0x00000000       0x18 build/default/production/FrameworkSource/ES_PostList.o
 .pdr           0x00000000        0x0 build/default/production/FrameworkSource/ES_PostList.o
 .reginfo       0x00000000       0x18 build/default/production/FrameworkSource/ES_Queue.o
 .MIPS.abiflags
                0x00000000       0x18 build/default/production/FrameworkSource/ES_Queue.o
 .pdr           0x00000000       0xa0 build/default/production/FrameworkSource/ES_Queue.o
 .reginfo       0x00000000       0x18 build/default/production/FrameworkSource/ES_Timers.o
 .MIPS.abiflags
                0x00000000       0x18 build/default/production/FrameworkSource/ES_Timers.o
 .pdr           0x00000000       0xe0 build/default/production/FrameworkSource/ES_Timers.o
 .reginfo       0x00000000       0x18 build/default/production/FrameworkSource/terminal.o
 .MIPS.abiflags
                0x00000000       0x18 build/default/production/FrameworkSource/terminal.o
 .pdr           0x00000000       0xe0 build/default/production/FrameworkSource/terminal.o
 .reginfo       0x00000000       0x18 build/default/production/FrameworkSource/circular_buffer_no_modulo_threadsafe.o
 .MIPS.abiflags
                0x00000000       0x18 build/default/production/FrameworkSource/circular_buffer_no_modulo_threadsafe.o
 .pdr           0x00000000      0x160 build/default/production/FrameworkSource/circular_buffer_no_modulo_threadsafe.o
 .reginfo       0x00000000       0x18 build/default/production/FrameworkSource/dbprintf.o
 .MIPS.abiflags
                0x00000000       0x18 build/default/production/FrameworkSource/dbprintf.o
 .pdr           0x00000000       0x40 build/default/production/FrameworkSource/dbprintf.o
 .reginfo       0x00000000       0x18 build/default/production/ProjectSource/EventCheckers.o
 .MIPS.abiflags
                0x00000000       0x18 build/default/production/ProjectSource/EventCheckers.o
 .pdr           0x00000000       0x80 build/default/production/ProjectSource/EventCheckers.o
 .reginfo       0x00000000       0x18 build/default/production/ProjectSource/TestHarnessService0.o
 .MIPS.abiflags
                0x00000000       0x18 build/default/production/ProjectSource/TestHarnessService0.o
 .pdr           0x00000000       0x60 build/default/production/ProjectSource/TestHarnessService0.o
 .reginfo       0x00000000       0x18 build/default/production/ProjectSource/main.o
 .MIPS.abiflags
                0x00000000       0x18 build/default/production/ProjectSource/main.o
 .pdr           0x00000000       0x20 build/default/production/ProjectSource/main.o
 .reginfo       0x00000000       0x18 build/default/production/ProjectSource/ADService.o
 .MIPS.abiflags
                0x00000000       0x18 build/default/production/ProjectSource/ADService.o
 .pdr           0x00000000       0x80 build/default/production/ProjectSource/ADService.o
 .reginfo       0x00000000       0x18 build/default/production/ProjectSource/PIC32_AD_Lib.o
 .MIPS.abiflags
                0x00000000       0x18 build/default/production/ProjectSource/PIC32_AD_Lib.o
 .pdr           0x00000000       0x60 build/default/production/ProjectSource/PIC32_AD_Lib.o
 .reginfo       0x00000000       0x18 build/default/production/ProjectSource/DCMotorService.o
 .MIPS.abiflags
                0x00000000       0x18 build/default/production/ProjectSource/DCMotorService.o
 .pdr           0x00000000      0x100 build/default/production/ProjectSource/DCMotorService.o
 .reginfo       0x00000000       0x18 build/default/production/ProjectSource/PIC32_SPI_HAL.o
 .MIPS.abiflags
                0x00000000       0x18 build/default/production/ProjectSource/PIC32_SPI_HAL.o
 .pdr           0x00000000      0x380 build/default/production/ProjectSource/PIC32_SPI_HAL.o
 .reginfo       0x00000000       0x18 build/default/production/ProjectSource/CommandRetrieveService.o
 .MIPS.abiflags
                0x00000000       0x18 build/default/production/ProjectSource/CommandRetrieveService.o
 .pdr           0x00000000       0xa0 build/default/production/ProjectSource/CommandRetrieveService.o
 .reginfo       0x00000000       0x18 build/default/production/ProjectSource/MainLogicFSM.o
 .MIPS.abiflags
                0x00000000       0x18 build/default/production/ProjectSource/MainLogicFSM.o
 .pdr           0x00000000      0x1c0 build/default/production/ProjectSource/MainLogicFSM.o
 .reginfo       0x00000000       0x18 build/default/production/ProjectSource/Ports.o
 .MIPS.abiflags
                0x00000000       0x18 build/default/production/ProjectSource/Ports.o
 .pdr           0x00000000       0xc0 build/default/production/ProjectSource/Ports.o
 .reginfo       0x00000000       0x18 build/default/production/ProjectSource/CommonDefinitions.o
 .MIPS.abiflags
                0x00000000       0x18 build/default/production/ProjectSource/CommonDefinitions.o
 .pdr           0x00000000       0x40 build/default/production/ProjectSource/CommonDefinitions.o
 .reginfo       0x00000000       0x18 /tmp/cckmVf8F.o
 .MIPS.abiflags
                0x00000000       0x18 /tmp/cckmVf8F.o
 .pdr           0x00000000       0xa0 /tmp/cckmVf8F.o
 .reginfo       0x00000000       0x18 /tmp/cc6UiQtu.o
 .MIPS.abiflags
                0x00000000       0x18 /tmp/cc6UiQtu.o
 .pdr           0x00000000        0x0 /tmp/cc6UiQtu.o
 .reginfo       0x00000000       0x18 /tmp/ccZ3wfy0.o
 .MIPS.abiflags
                0x00000000       0x18 /tmp/ccZ3wfy0.o
 .pdr           0x00000000        0x0 /tmp/ccZ3wfy0.o
 .discard       0x00000000       0xb0 /tmp/ccZ3wfy0.o
 .reginfo       0x00000000       0x18 /opt/microchip/xc32/v5.00/bin/bin/../../lib/gcc/pic32m/13.2.1/../../../../pic32m/lib/debug-exception-return.o
 .MIPS.abiflags
                0x00000000       0x18 /opt/microchip/xc32/v5.00/bin/bin/../../lib/gcc/pic32m/13.2.1/../../../../pic32m/lib/debug-exception-return.o
 .pdr           0x00000000       0x20 /opt/microchip/xc32/v5.00/bin/bin/../../lib/gcc/pic32m/13.2.1/../../../../pic32m/lib/debug-exception-return.o
 .xc_stack_usage.hdr
                0x00000000        0xe /opt/microchip/xc32/v5.00/bin/bin/../../lib/gcc/pic32m/13.2.1/../../../../pic32m/lib/debug-exception-return.o
 .xc_stack_usage
                0x00000000       0x1d /opt/microchip/xc32/v5.00/bin/bin/../../lib/gcc/pic32m/13.2.1/../../../../pic32m/lib/debug-exception-return.o
 .reginfo       0x00000000       0x18 /opt/microchip/xc32/v5.00/bin/bin/../../lib/gcc/pic32m/13.2.1/../../../../pic32m/lib/pic32_software_reset.o
 .MIPS.abiflags
                0x00000000       0x18 /opt/microchip/xc32/v5.00/bin/bin/../../lib/gcc/pic32m/13.2.1/../../../../pic32m/lib/pic32_software_reset.o
 .pdr           0x00000000       0x20 /opt/microchip/xc32/v5.00/bin/bin/../../lib/gcc/pic32m/13.2.1/../../../../pic32m/lib/pic32_software_reset.o
 .xc_stack_usage.hdr
                0x00000000        0xe /opt/microchip/xc32/v5.00/bin/bin/../../lib/gcc/pic32m/13.2.1/../../../../pic32m/lib/pic32_software_reset.o
 .xc_stack_usage
                0x00000000       0x24 /opt/microchip/xc32/v5.00/bin/bin/../../lib/gcc/pic32m/13.2.1/../../../../pic32m/lib/pic32_software_reset.o
 .reginfo       0x00000000       0x18 /opt/microchip/xc32/v5.00/bin/bin/../../lib/gcc/pic32m/13.2.1/libgcc.a(floatunsisf.o)
 .MIPS.abiflags
                0x00000000       0x18 /opt/microchip/xc32/v5.00/bin/bin/../../lib/gcc/pic32m/13.2.1/libgcc.a(floatunsisf.o)
 .pdr           0x00000000       0x20 /opt/microchip/xc32/v5.00/bin/bin/../../lib/gcc/pic32m/13.2.1/libgcc.a(floatunsisf.o)
 .xc_stack_usage
                0x00000000       0x1b /opt/microchip/xc32/v5.00/bin/bin/../../lib/gcc/pic32m/13.2.1/libgcc.a(floatunsisf.o)
 .xc_stack_usage.hdr
                0x00000000        0xe /opt/microchip/xc32/v5.00/bin/bin/../../lib/gcc/pic32m/13.2.1/libgcc.a(floatunsisf.o)
 .reginfo       0x00000000       0x18 /opt/microchip/xc32/v5.00/bin/bin/../../lib/gcc/pic32m/13.2.1/../../../../pic32m/lib/libpic32.a(default-bootstrap-exception-handler.o)
 .MIPS.abiflags
                0x00000000       0x18 /opt/microchip/xc32/v5.00/bin/bin/../../lib/gcc/pic32m/13.2.1/../../../../pic32m/lib/libpic32.a(default-bootstrap-exception-handler.o)
 .pdr           0x00000000       0x20 /opt/microchip/xc32/v5.00/bin/bin/../../lib/gcc/pic32m/13.2.1/../../../../pic32m/lib/libpic32.a(default-bootstrap-exception-handler.o)
 .xc_stack_usage
                0x00000000       0x2a /opt/microchip/xc32/v5.00/bin/bin/../../lib/gcc/pic32m/13.2.1/../../../../pic32m/lib/libpic32.a(default-bootstrap-exception-handler.o)
 .xc_stack_usage.hdr
                0x00000000        0xe /opt/microchip/xc32/v5.00/bin/bin/../../lib/gcc/pic32m/13.2.1/../../../../pic32m/lib/libpic32.a(default-bootstrap-exception-handler.o)
 .reginfo       0x00000000       0x18 /opt/microchip/xc32/v5.00/bin/bin/../../lib/gcc/pic32m/13.2.1/../../../../pic32m/lib/libpic32.a(default-on-reset.o)
 .MIPS.abiflags
                0x00000000       0x18 /opt/microchip/xc32/v5.00/bin/bin/../../lib/gcc/pic32m/13.2.1/../../../../pic32m/lib/libpic32.a(default-on-reset.o)
 .pdr           0x00000000       0x20 /opt/microchip/xc32/v5.00/bin/bin/../../lib/gcc/pic32m/13.2.1/../../../../pic32m/lib/libpic32.a(default-on-reset.o)
 .xc_stack_usage
                0x00000000       0x17 /opt/microchip/xc32/v5.00/bin/bin/../../lib/gcc/pic32m/13.2.1/../../../../pic32m/lib/libpic32.a(default-on-reset.o)
 .xc_stack_usage.hdr
                0x00000000        0xe /opt/microchip/xc32/v5.00/bin/bin/../../lib/gcc/pic32m/13.2.1/../../../../pic32m/lib/libpic32.a(default-on-reset.o)
 .reginfo       0x00000000       0x18 /opt/microchip/xc32/v5.00/bin/bin/../../lib/gcc/pic32m/13.2.1/../../../../pic32m/lib/libpic32.a(default-on-bootstrap.o)
 .MIPS.abiflags
                0x00000000       0x18 /opt/microchip/xc32/v5.00/bin/bin/../../lib/gcc/pic32m/13.2.1/../../../../pic32m/lib/libpic32.a(default-on-bootstrap.o)
 .pdr           0x00000000       0x20 /opt/microchip/xc32/v5.00/bin/bin/../../lib/gcc/pic32m/13.2.1/../../../../pic32m/lib/libpic32.a(default-on-bootstrap.o)
 .xc_stack_usage
                0x00000000       0x1b /opt/microchip/xc32/v5.00/bin/bin/../../lib/gcc/pic32m/13.2.1/../../../../pic32m/lib/libpic32.a(default-on-bootstrap.o)
 .xc_stack_usage.hdr
                0x00000000        0xe /opt/microchip/xc32/v5.00/bin/bin/../../lib/gcc/pic32m/13.2.1/../../../../pic32m/lib/libpic32.a(default-on-bootstrap.o)
 .reginfo       0x00000000       0x18 /opt/microchip/xc32/v5.00/bin/bin/../../lib/gcc/pic32m/13.2.1/../../../../pic32m/lib/libpic32.a(default-nmi-handler.o)
 .MIPS.abiflags
                0x00000000       0x18 /opt/microchip/xc32/v5.00/bin/bin/../../lib/gcc/pic32m/13.2.1/../../../../pic32m/lib/libpic32.a(default-nmi-handler.o)
 .pdr           0x00000000       0x20 /opt/microchip/xc32/v5.00/bin/bin/../../lib/gcc/pic32m/13.2.1/../../../../pic32m/lib/libpic32.a(default-nmi-handler.o)
 .xc_stack_usage.hdr
                0x00000000        0xe /opt/microchip/xc32/v5.00/bin/bin/../../lib/gcc/pic32m/13.2.1/../../../../pic32m/lib/libpic32.a(default-nmi-handler.o)
 .xc_stack_usage
                0x00000000       0x1a /opt/microchip/xc32/v5.00/bin/bin/../../lib/gcc/pic32m/13.2.1/../../../../pic32m/lib/libpic32.a(default-nmi-handler.o)
 .reginfo       0x00000000       0x18 /opt/microchip/xc32/v5.00/bin/bin/../../lib/gcc/pic32m/13.2.1/../../../../pic32m/lib/libpic32.a(xc32_uart.o)
 .MIPS.abiflags
                0x00000000       0x18 /opt/microchip/xc32/v5.00/bin/bin/../../lib/gcc/pic32m/13.2.1/../../../../pic32m/lib/libpic32.a(xc32_uart.o)
 .pdr           0x00000000        0x0 /opt/microchip/xc32/v5.00/bin/bin/../../lib/gcc/pic32m/13.2.1/../../../../pic32m/lib/libpic32.a(xc32_uart.o)
 .xc_stack_usage.hdr
                0x00000000        0xe /opt/microchip/xc32/v5.00/bin/bin/../../lib/gcc/pic32m/13.2.1/../../../../pic32m/lib/libpic32.a(xc32_uart.o)
 .reginfo       0x00000000       0x18 /opt/microchip/xc32/v5.00/bin/bin/../../lib/gcc/pic32m/13.2.1/../../../../pic32m/lib/libpic32.a(pic32_data_init_core.o)
 .MIPS.abiflags
                0x00000000       0x18 /opt/microchip/xc32/v5.00/bin/bin/../../lib/gcc/pic32m/13.2.1/../../../../pic32m/lib/libpic32.a(pic32_data_init_core.o)
 .pdr           0x00000000       0x40 /opt/microchip/xc32/v5.00/bin/bin/../../lib/gcc/pic32m/13.2.1/../../../../pic32m/lib/libpic32.a(pic32_data_init_core.o)
 .xc_stack_usage.hdr
                0x00000000        0xe /opt/microchip/xc32/v5.00/bin/bin/../../lib/gcc/pic32m/13.2.1/../../../../pic32m/lib/libpic32.a(pic32_data_init_core.o)
 .xc_stack_usage
                0x00000000       0x41 /opt/microchip/xc32/v5.00/bin/bin/../../lib/gcc/pic32m/13.2.1/../../../../pic32m/lib/libpic32.a(pic32_data_init_core.o)
 .reginfo       0x00000000       0x18 /opt/microchip/xc32/v5.00/bin/bin/../../lib/gcc/pic32m/13.2.1/../../../../pic32m/lib/libpic32.a(general-exception.o)
 .MIPS.abiflags
                0x00000000       0x18 /opt/microchip/xc32/v5.00/bin/bin/../../lib/gcc/pic32m/13.2.1/../../../../pic32m/lib/libpic32.a(general-exception.o)
 .pdr           0x00000000       0x20 /opt/microchip/xc32/v5.00/bin/bin/../../lib/gcc/pic32m/13.2.1/../../../../pic32m/lib/libpic32.a(general-exception.o)
 .xc_stack_usage.hdr
                0x00000000        0xe /opt/microchip/xc32/v5.00/bin/bin/../../lib/gcc/pic32m/13.2.1/../../../../pic32m/lib/libpic32.a(general-exception.o)
 .xc_stack_usage
                0x00000000       0x28 /opt/microchip/xc32/v5.00/bin/bin/../../lib/gcc/pic32m/13.2.1/../../../../pic32m/lib/libpic32.a(general-exception.o)
 .reginfo       0x00000000       0x18 /opt/microchip/xc32/v5.00/bin/bin/../../lib/gcc/pic32m/13.2.1/../../../../pic32m/lib/libpic32.a(vector1.o)
 .MIPS.abiflags
                0x00000000       0x18 /opt/microchip/xc32/v5.00/bin/bin/../../lib/gcc/pic32m/13.2.1/../../../../pic32m/lib/libpic32.a(vector1.o)
 .pdr           0x00000000       0x20 /opt/microchip/xc32/v5.00/bin/bin/../../lib/gcc/pic32m/13.2.1/../../../../pic32m/lib/libpic32.a(vector1.o)
 .xc_stack_usage.hdr
                0x00000000        0xe /opt/microchip/xc32/v5.00/bin/bin/../../lib/gcc/pic32m/13.2.1/../../../../pic32m/lib/libpic32.a(vector1.o)
 .xc_stack_usage
                0x00000000       0x21 /opt/microchip/xc32/v5.00/bin/bin/../../lib/gcc/pic32m/13.2.1/../../../../pic32m/lib/libpic32.a(vector1.o)
 .reginfo       0x00000000       0x18 /opt/microchip/xc32/v5.00/bin/bin/../../lib/gcc/pic32m/13.2.1/../../../../pic32m/lib/libpic32.a(vector2.o)
 .MIPS.abiflags
                0x00000000       0x18 /opt/microchip/xc32/v5.00/bin/bin/../../lib/gcc/pic32m/13.2.1/../../../../pic32m/lib/libpic32.a(vector2.o)
 .pdr           0x00000000       0x20 /opt/microchip/xc32/v5.00/bin/bin/../../lib/gcc/pic32m/13.2.1/../../../../pic32m/lib/libpic32.a(vector2.o)
 .xc_stack_usage.hdr
                0x00000000        0xe /opt/microchip/xc32/v5.00/bin/bin/../../lib/gcc/pic32m/13.2.1/../../../../pic32m/lib/libpic32.a(vector2.o)
 .xc_stack_usage
                0x00000000       0x21 /opt/microchip/xc32/v5.00/bin/bin/../../lib/gcc/pic32m/13.2.1/../../../../pic32m/lib/libpic32.a(vector2.o)
 .reginfo       0x00000000       0x18 /opt/microchip/xc32/v5.00/bin/bin/../../lib/gcc/pic32m/13.2.1/../../../../pic32m/lib/libpic32.a(vector3.o)
 .MIPS.abiflags
                0x00000000       0x18 /opt/microchip/xc32/v5.00/bin/bin/../../lib/gcc/pic32m/13.2.1/../../../../pic32m/lib/libpic32.a(vector3.o)
 .pdr           0x00000000       0x20 /opt/microchip/xc32/v5.00/bin/bin/../../lib/gcc/pic32m/13.2.1/../../../../pic32m/lib/libpic32.a(vector3.o)
 .xc_stack_usage.hdr
                0x00000000        0xe /opt/microchip/xc32/v5.00/bin/bin/../../lib/gcc/pic32m/13.2.1/../../../../pic32m/lib/libpic32.a(vector3.o)
 .xc_stack_usage
                0x00000000       0x21 /opt/microchip/xc32/v5.00/bin/bin/../../lib/gcc/pic32m/13.2.1/../../../../pic32m/lib/libpic32.a(vector3.o)
 .reginfo       0x00000000       0x18 /opt/microchip/xc32/v5.00/bin/bin/../../lib/gcc/pic32m/13.2.1/../../../../pic32m/lib/libpic32.a(vector4.o)
 .MIPS.abiflags
                0x00000000       0x18 /opt/microchip/xc32/v5.00/bin/bin/../../lib/gcc/pic32m/13.2.1/../../../../pic32m/lib/libpic32.a(vector4.o)
 .pdr           0x00000000       0x20 /opt/microchip/xc32/v5.00/bin/bin/../../lib/gcc/pic32m/13.2.1/../../../../pic32m/lib/libpic32.a(vector4.o)
 .xc_stack_usage.hdr
                0x00000000        0xe /opt/microchip/xc32/v5.00/bin/bin/../../lib/gcc/pic32m/13.2.1/../../../../pic32m/lib/libpic32.a(vector4.o)
 .xc_stack_usage
                0x00000000       0x21 /opt/microchip/xc32/v5.00/bin/bin/../../lib/gcc/pic32m/13.2.1/../../../../pic32m/lib/libpic32.a(vector4.o)
 .reginfo       0x00000000       0x18 /opt/microchip/xc32/v5.00/bin/bin/../../lib/gcc/pic32m/13.2.1/../../../../pic32m/lib/libpic32.a(vector5.o)
 .MIPS.abiflags
                0x00000000       0x18 /opt/microchip/xc32/v5.00/bin/bin/../../lib/gcc/pic32m/13.2.1/../../../../pic32m/lib/libpic32.a(vector5.o)
 .pdr           0x00000000       0x20 /opt/microchip/xc32/v5.00/bin/bin/../../lib/gcc/pic32m/13.2.1/../../../../pic32m/lib/libpic32.a(vector5.o)
 .xc_stack_usage.hdr
                0x00000000        0xe /opt/microchip/xc32/v5.00/bin/bin/../../lib/gcc/pic32m/13.2.1/../../../../pic32m/lib/libpic32.a(vector5.o)
 .xc_stack_usage
                0x00000000       0x21 /opt/microchip/xc32/v5.00/bin/bin/../../lib/gcc/pic32m/13.2.1/../../../../pic32m/lib/libpic32.a(vector5.o)
 .reginfo       0x00000000       0x18 /opt/microchip/xc32/v5.00/bin/bin/../../lib/gcc/pic32m/13.2.1/../../../../pic32m/lib/libpic32.a(vector6.o)
 .MIPS.abiflags
                0x00000000       0x18 /opt/microchip/xc32/v5.00/bin/bin/../../lib/gcc/pic32m/13.2.1/../../../../pic32m/lib/libpic32.a(vector6.o)
 .pdr           0x00000000       0x20 /opt/microchip/xc32/v5.00/bin/bin/../../lib/gcc/pic32m/13.2.1/../../../../pic32m/lib/libpic32.a(vector6.o)
 .xc_stack_usage.hdr
                0x00000000        0xe /opt/microchip/xc32/v5.00/bin/bin/../../lib/gcc/pic32m/13.2.1/../../../../pic32m/lib/libpic32.a(vector6.o)
 .xc_stack_usage
                0x00000000       0x21 /opt/microchip/xc32/v5.00/bin/bin/../../lib/gcc/pic32m/13.2.1/../../../../pic32m/lib/libpic32.a(vector6.o)
 .reginfo       0x00000000       0x18 /opt/microchip/xc32/v5.00/bin/bin/../../lib/gcc/pic32m/13.2.1/../../../../pic32m/lib/libpic32.a(vector7.o)
 .MIPS.abiflags
                0x00000000       0x18 /opt/microchip/xc32/v5.00/bin/bin/../../lib/gcc/pic32m/13.2.1/../../../../pic32m/lib/libpic32.a(vector7.o)
 .pdr           0x00000000       0x20 /opt/microchip/xc32/v5.00/bin/bin/../../lib/gcc/pic32m/13.2.1/../../../../pic32m/lib/libpic32.a(vector7.o)
 .xc_stack_usage.hdr
                0x00000000        0xe /opt/microchip/xc32/v5.00/bin/bin/../../lib/gcc/pic32m/13.2.1/../../../../pic32m/lib/libpic32.a(vector7.o)
 .xc_stack_usage
                0x00000000       0x21 /opt/microchip/xc32/v5.00/bin/bin/../../lib/gcc/pic32m/13.2.1/../../../../pic32m/lib/libpic32.a(vector7.o)
 .reginfo       0x00000000       0x18 /opt/microchip/xc32/v5.00/bin/bin/../../lib/gcc/pic32m/13.2.1/../../../../pic32m/lib/libpic32.a(vector8.o)
 .MIPS.abiflags
                0x00000000       0x18 /opt/microchip/xc32/v5.00/bin/bin/../../lib/gcc/pic32m/13.2.1/../../../../pic32m/lib/libpic32.a(vector8.o)
 .pdr           0x00000000       0x20 /opt/microchip/xc32/v5.00/bin/bin/../../lib/gcc/pic32m/13.2.1/../../../../pic32m/lib/libpic32.a(vector8.o)
 .xc_stack_usage.hdr
                0x00000000        0xe /opt/microchip/xc32/v5.00/bin/bin/../../lib/gcc/pic32m/13.2.1/../../../../pic32m/lib/libpic32.a(vector8.o)
 .xc_stack_usage
                0x00000000       0x21 /opt/microchip/xc32/v5.00/bin/bin/../../lib/gcc/pic32m/13.2.1/../../../../pic32m/lib/libpic32.a(vector8.o)
 .reginfo       0x00000000       0x18 /opt/microchip/xc32/v5.00/bin/bin/../../lib/gcc/pic32m/13.2.1/../../../../pic32m/lib/libpic32.a(vector9.o)
 .MIPS.abiflags
                0x00000000       0x18 /opt/microchip/xc32/v5.00/bin/bin/../../lib/gcc/pic32m/13.2.1/../../../../pic32m/lib/libpic32.a(vector9.o)
 .pdr           0x00000000       0x20 /opt/microchip/xc32/v5.00/bin/bin/../../lib/gcc/pic32m/13.2.1/../../../../pic32m/lib/libpic32.a(vector9.o)
 .xc_stack_usage.hdr
                0x00000000        0xe /opt/microchip/xc32/v5.00/bin/bin/../../lib/gcc/pic32m/13.2.1/../../../../pic32m/lib/libpic32.a(vector9.o)
 .xc_stack_usage
                0x00000000       0x21 /opt/microchip/xc32/v5.00/bin/bin/../../lib/gcc/pic32m/13.2.1/../../../../pic32m/lib/libpic32.a(vector9.o)
 .reginfo       0x00000000       0x18 /opt/microchip/xc32/v5.00/bin/bin/../../lib/gcc/pic32m/13.2.1/../../../../pic32m/lib/libpic32.a(vector10.o)
 .MIPS.abiflags
                0x00000000       0x18 /opt/microchip/xc32/v5.00/bin/bin/../../lib/gcc/pic32m/13.2.1/../../../../pic32m/lib/libpic32.a(vector10.o)
 .pdr           0x00000000       0x20 /opt/microchip/xc32/v5.00/bin/bin/../../lib/gcc/pic32m/13.2.1/../../../../pic32m/lib/libpic32.a(vector10.o)
 .xc_stack_usage.hdr
                0x00000000        0xe /opt/microchip/xc32/v5.00/bin/bin/../../lib/gcc/pic32m/13.2.1/../../../../pic32m/lib/libpic32.a(vector10.o)
 .xc_stack_usage
                0x00000000       0x22 /opt/microchip/xc32/v5.00/bin/bin/../../lib/gcc/pic32m/13.2.1/../../../../pic32m/lib/libpic32.a(vector10.o)
 .reginfo       0x00000000       0x18 /opt/microchip/xc32/v5.00/bin/bin/../../lib/gcc/pic32m/13.2.1/../../../../pic32m/lib/libpic32.a(vector11.o)
 .MIPS.abiflags
                0x00000000       0x18 /opt/microchip/xc32/v5.00/bin/bin/../../lib/gcc/pic32m/13.2.1/../../../../pic32m/lib/libpic32.a(vector11.o)
 .pdr           0x00000000       0x20 /opt/microchip/xc32/v5.00/bin/bin/../../lib/gcc/pic32m/13.2.1/../../../../pic32m/lib/libpic32.a(vector11.o)
 .xc_stack_usage.hdr
                0x00000000        0xe /opt/microchip/xc32/v5.00/bin/bin/../../lib/gcc/pic32m/13.2.1/../../../../pic32m/lib/libpic32.a(vector11.o)
 .xc_stack_usage
                0x00000000       0x22 /opt/microchip/xc32/v5.00/bin/bin/../../lib/gcc/pic32m/13.2.1/../../../../pic32m/lib/libpic32.a(vector11.o)
 .reginfo       0x00000000       0x18 /opt/microchip/xc32/v5.00/bin/bin/../../lib/gcc/pic32m/13.2.1/../../../../pic32m/lib/libpic32.a(vector12.o)
 .MIPS.abiflags
                0x00000000       0x18 /opt/microchip/xc32/v5.00/bin/bin/../../lib/gcc/pic32m/13.2.1/../../../../pic32m/lib/libpic32.a(vector12.o)
 .pdr           0x00000000       0x20 /opt/microchip/xc32/v5.00/bin/bin/../../lib/gcc/pic32m/13.2.1/../../../../pic32m/lib/libpic32.a(vector12.o)
 .xc_stack_usage.hdr
                0x00000000        0xe /opt/microchip/xc32/v5.00/bin/bin/../../lib/gcc/pic32m/13.2.1/../../../../pic32m/lib/libpic32.a(vector12.o)
 .xc_stack_usage
                0x00000000       0x22 /opt/microchip/xc32/v5.00/bin/bin/../../lib/gcc/pic32m/13.2.1/../../../../pic32m/lib/libpic32.a(vector12.o)
 .reginfo       0x00000000       0x18 /opt/microchip/xc32/v5.00/bin/bin/../../lib/gcc/pic32m/13.2.1/../../../../pic32m/lib/libpic32.a(vector13.o)
 .MIPS.abiflags
                0x00000000       0x18 /opt/microchip/xc32/v5.00/bin/bin/../../lib/gcc/pic32m/13.2.1/../../../../pic32m/lib/libpic32.a(vector13.o)
 .pdr           0x00000000       0x20 /opt/microchip/xc32/v5.00/bin/bin/../../lib/gcc/pic32m/13.2.1/../../../../pic32m/lib/libpic32.a(vector13.o)
 .xc_stack_usage.hdr
                0x00000000        0xe /opt/microchip/xc32/v5.00/bin/bin/../../lib/gcc/pic32m/13.2.1/../../../../pic32m/lib/libpic32.a(vector13.o)
 .xc_stack_usage
                0x00000000       0x22 /opt/microchip/xc32/v5.00/bin/bin/../../lib/gcc/pic32m/13.2.1/../../../../pic32m/lib/libpic32.a(vector13.o)
 .reginfo       0x00000000       0x18 /opt/microchip/xc32/v5.00/bin/bin/../../lib/gcc/pic32m/13.2.1/../../../../pic32m/lib/libpic32.a(vector14.o)
 .MIPS.abiflags
                0x00000000       0x18 /opt/microchip/xc32/v5.00/bin/bin/../../lib/gcc/pic32m/13.2.1/../../../../pic32m/lib/libpic32.a(vector14.o)
 .pdr           0x00000000       0x20 /opt/microchip/xc32/v5.00/bin/bin/../../lib/gcc/pic32m/13.2.1/../../../../pic32m/lib/libpic32.a(vector14.o)
 .xc_stack_usage.hdr
                0x00000000        0xe /opt/microchip/xc32/v5.00/bin/bin/../../lib/gcc/pic32m/13.2.1/../../../../pic32m/lib/libpic32.a(vector14.o)
 .xc_stack_usage
                0x00000000       0x22 /opt/microchip/xc32/v5.00/bin/bin/../../lib/gcc/pic32m/13.2.1/../../../../pic32m/lib/libpic32.a(vector14.o)
 .reginfo       0x00000000       0x18 /opt/microchip/xc32/v5.00/bin/bin/../../lib/gcc/pic32m/13.2.1/../../../../pic32m/lib/libpic32.a(vector15.o)
 .MIPS.abiflags
                0x00000000       0x18 /opt/microchip/xc32/v5.00/bin/bin/../../lib/gcc/pic32m/13.2.1/../../../../pic32m/lib/libpic32.a(vector15.o)
 .pdr           0x00000000       0x20 /opt/microchip/xc32/v5.00/bin/bin/../../lib/gcc/pic32m/13.2.1/../../../../pic32m/lib/libpic32.a(vector15.o)
 .xc_stack_usage.hdr
                0x00000000        0xe /opt/microchip/xc32/v5.00/bin/bin/../../lib/gcc/pic32m/13.2.1/../../../../pic32m/lib/libpic32.a(vector15.o)
 .xc_stack_usage
                0x00000000       0x22 /opt/microchip/xc32/v5.00/bin/bin/../../lib/gcc/pic32m/13.2.1/../../../../pic32m/lib/libpic32.a(vector15.o)
 .reginfo       0x00000000       0x18 /opt/microchip/xc32/v5.00/bin/bin/../../lib/gcc/pic32m/13.2.1/../../../../pic32m/lib/libpic32.a(vector16.o)
 .MIPS.abiflags
                0x00000000       0x18 /opt/microchip/xc32/v5.00/bin/bin/../../lib/gcc/pic32m/13.2.1/../../../../pic32m/lib/libpic32.a(vector16.o)
 .pdr           0x00000000       0x20 /opt/microchip/xc32/v5.00/bin/bin/../../lib/gcc/pic32m/13.2.1/../../../../pic32m/lib/libpic32.a(vector16.o)
 .xc_stack_usage.hdr
                0x00000000        0xe /opt/microchip/xc32/v5.00/bin/bin/../../lib/gcc/pic32m/13.2.1/../../../../pic32m/lib/libpic32.a(vector16.o)
 .xc_stack_usage
                0x00000000       0x22 /opt/microchip/xc32/v5.00/bin/bin/../../lib/gcc/pic32m/13.2.1/../../../../pic32m/lib/libpic32.a(vector16.o)
 .reginfo       0x00000000       0x18 /opt/microchip/xc32/v5.00/bin/bin/../../lib/gcc/pic32m/13.2.1/../../../../pic32m/lib/libpic32.a(vector17.o)
 .MIPS.abiflags
                0x00000000       0x18 /opt/microchip/xc32/v5.00/bin/bin/../../lib/gcc/pic32m/13.2.1/../../../../pic32m/lib/libpic32.a(vector17.o)
 .pdr           0x00000000       0x20 /opt/microchip/xc32/v5.00/bin/bin/../../lib/gcc/pic32m/13.2.1/../../../../pic32m/lib/libpic32.a(vector17.o)
 .xc_stack_usage.hdr
                0x00000000        0xe /opt/microchip/xc32/v5.00/bin/bin/../../lib/gcc/pic32m/13.2.1/../../../../pic32m/lib/libpic32.a(vector17.o)
 .xc_stack_usage
                0x00000000       0x22 /opt/microchip/xc32/v5.00/bin/bin/../../lib/gcc/pic32m/13.2.1/../../../../pic32m/lib/libpic32.a(vector17.o)
 .reginfo       0x00000000       0x18 /opt/microchip/xc32/v5.00/bin/bin/../../lib/gcc/pic32m/13.2.1/../../../../pic32m/lib/libpic32.a(vector18.o)
 .MIPS.abiflags
                0x00000000       0x18 /opt/microchip/xc32/v5.00/bin/bin/../../lib/gcc/pic32m/13.2.1/../../../../pic32m/lib/libpic32.a(vector18.o)
 .pdr           0x00000000       0x20 /opt/microchip/xc32/v5.00/bin/bin/../../lib/gcc/pic32m/13.2.1/../../../../pic32m/lib/libpic32.a(vector18.o)
 .xc_stack_usage.hdr
                0x00000000        0xe /opt/microchip/xc32/v5.00/bin/bin/../../lib/gcc/pic32m/13.2.1/../../../../pic32m/lib/libpic32.a(vector18.o)
 .xc_stack_usage
                0x00000000       0x22 /opt/microchip/xc32/v5.00/bin/bin/../../lib/gcc/pic32m/13.2.1/../../../../pic32m/lib/libpic32.a(vector18.o)
 .reginfo       0x00000000       0x18 /opt/microchip/xc32/v5.00/bin/bin/../../lib/gcc/pic32m/13.2.1/../../../../pic32m/lib/libpic32.a(vector19.o)
 .MIPS.abiflags
                0x00000000       0x18 /opt/microchip/xc32/v5.00/bin/bin/../../lib/gcc/pic32m/13.2.1/../../../../pic32m/lib/libpic32.a(vector19.o)
 .pdr           0x00000000       0x20 /opt/microchip/xc32/v5.00/bin/bin/../../lib/gcc/pic32m/13.2.1/../../../../pic32m/lib/libpic32.a(vector19.o)
 .xc_stack_usage.hdr
                0x00000000        0xe /opt/microchip/xc32/v5.00/bin/bin/../../lib/gcc/pic32m/13.2.1/../../../../pic32m/lib/libpic32.a(vector19.o)
 .xc_stack_usage
                0x00000000       0x22 /opt/microchip/xc32/v5.00/bin/bin/../../lib/gcc/pic32m/13.2.1/../../../../pic32m/lib/libpic32.a(vector19.o)
 .reginfo       0x00000000       0x18 /opt/microchip/xc32/v5.00/bin/bin/../../lib/gcc/pic32m/13.2.1/../../../../pic32m/lib/libpic32.a(vector20.o)
 .MIPS.abiflags
                0x00000000       0x18 /opt/microchip/xc32/v5.00/bin/bin/../../lib/gcc/pic32m/13.2.1/../../../../pic32m/lib/libpic32.a(vector20.o)
 .pdr           0x00000000       0x20 /opt/microchip/xc32/v5.00/bin/bin/../../lib/gcc/pic32m/13.2.1/../../../../pic32m/lib/libpic32.a(vector20.o)
 .xc_stack_usage.hdr
                0x00000000        0xe /opt/microchip/xc32/v5.00/bin/bin/../../lib/gcc/pic32m/13.2.1/../../../../pic32m/lib/libpic32.a(vector20.o)
 .xc_stack_usage
                0x00000000       0x22 /opt/microchip/xc32/v5.00/bin/bin/../../lib/gcc/pic32m/13.2.1/../../../../pic32m/lib/libpic32.a(vector20.o)
 .reginfo       0x00000000       0x18 /opt/microchip/xc32/v5.00/bin/bin/../../lib/gcc/pic32m/13.2.1/../../../../pic32m/lib/libpic32.a(vector21.o)
 .MIPS.abiflags
                0x00000000       0x18 /opt/microchip/xc32/v5.00/bin/bin/../../lib/gcc/pic32m/13.2.1/../../../../pic32m/lib/libpic32.a(vector21.o)
 .pdr           0x00000000       0x20 /opt/microchip/xc32/v5.00/bin/bin/../../lib/gcc/pic32m/13.2.1/../../../../pic32m/lib/libpic32.a(vector21.o)
 .xc_stack_usage.hdr
                0x00000000        0xe /opt/microchip/xc32/v5.00/bin/bin/../../lib/gcc/pic32m/13.2.1/../../../../pic32m/lib/libpic32.a(vector21.o)
 .xc_stack_usage
                0x00000000       0x22 /opt/microchip/xc32/v5.00/bin/bin/../../lib/gcc/pic32m/13.2.1/../../../../pic32m/lib/libpic32.a(vector21.o)
 .reginfo       0x00000000       0x18 /opt/microchip/xc32/v5.00/bin/bin/../../lib/gcc/pic32m/13.2.1/../../../../pic32m/lib/libpic32.a(vector22.o)
 .MIPS.abiflags
                0x00000000       0x18 /opt/microchip/xc32/v5.00/bin/bin/../../lib/gcc/pic32m/13.2.1/../../../../pic32m/lib/libpic32.a(vector22.o)
 .pdr           0x00000000       0x20 /opt/microchip/xc32/v5.00/bin/bin/../../lib/gcc/pic32m/13.2.1/../../../../pic32m/lib/libpic32.a(vector22.o)
 .xc_stack_usage.hdr
                0x00000000        0xe /opt/microchip/xc32/v5.00/bin/bin/../../lib/gcc/pic32m/13.2.1/../../../../pic32m/lib/libpic32.a(vector22.o)
 .xc_stack_usage
                0x00000000       0x22 /opt/microchip/xc32/v5.00/bin/bin/../../lib/gcc/pic32m/13.2.1/../../../../pic32m/lib/libpic32.a(vector22.o)
 .reginfo       0x00000000       0x18 /opt/microchip/xc32/v5.00/bin/bin/../../lib/gcc/pic32m/13.2.1/../../../../pic32m/lib/libpic32.a(vector23.o)
 .MIPS.abiflags
                0x00000000       0x18 /opt/microchip/xc32/v5.00/bin/bin/../../lib/gcc/pic32m/13.2.1/../../../../pic32m/lib/libpic32.a(vector23.o)
 .pdr           0x00000000       0x20 /opt/microchip/xc32/v5.00/bin/bin/../../lib/gcc/pic32m/13.2.1/../../../../pic32m/lib/libpic32.a(vector23.o)
 .xc_stack_usage.hdr
                0x00000000        0xe /opt/microchip/xc32/v5.00/bin/bin/../../lib/gcc/pic32m/13.2.1/../../../../pic32m/lib/libpic32.a(vector23.o)
 .xc_stack_usage
                0x00000000       0x22 /opt/microchip/xc32/v5.00/bin/bin/../../lib/gcc/pic32m/13.2.1/../../../../pic32m/lib/libpic32.a(vector23.o)
 .reginfo       0x00000000       0x18 /opt/microchip/xc32/v5.00/bin/bin/../../lib/gcc/pic32m/13.2.1/../../../../pic32m/lib/libpic32.a(vector24.o)
 .MIPS.abiflags
                0x00000000       0x18 /opt/microchip/xc32/v5.00/bin/bin/../../lib/gcc/pic32m/13.2.1/../../../../pic32m/lib/libpic32.a(vector24.o)
 .pdr           0x00000000       0x20 /opt/microchip/xc32/v5.00/bin/bin/../../lib/gcc/pic32m/13.2.1/../../../../pic32m/lib/libpic32.a(vector24.o)
 .xc_stack_usage.hdr
                0x00000000        0xe /opt/microchip/xc32/v5.00/bin/bin/../../lib/gcc/pic32m/13.2.1/../../../../pic32m/lib/libpic32.a(vector24.o)
 .xc_stack_usage
                0x00000000       0x22 /opt/microchip/xc32/v5.00/bin/bin/../../lib/gcc/pic32m/13.2.1/../../../../pic32m/lib/libpic32.a(vector24.o)
 .reginfo       0x00000000       0x18 /opt/microchip/xc32/v5.00/bin/bin/../../lib/gcc/pic32m/13.2.1/../../../../pic32m/lib/libpic32.a(vector25.o)
 .MIPS.abiflags
                0x00000000       0x18 /opt/microchip/xc32/v5.00/bin/bin/../../lib/gcc/pic32m/13.2.1/../../../../pic32m/lib/libpic32.a(vector25.o)
 .pdr           0x00000000       0x20 /opt/microchip/xc32/v5.00/bin/bin/../../lib/gcc/pic32m/13.2.1/../../../../pic32m/lib/libpic32.a(vector25.o)
 .xc_stack_usage.hdr
                0x00000000        0xe /opt/microchip/xc32/v5.00/bin/bin/../../lib/gcc/pic32m/13.2.1/../../../../pic32m/lib/libpic32.a(vector25.o)
 .xc_stack_usage
                0x00000000       0x22 /opt/microchip/xc32/v5.00/bin/bin/../../lib/gcc/pic32m/13.2.1/../../../../pic32m/lib/libpic32.a(vector25.o)
 .reginfo       0x00000000       0x18 /opt/microchip/xc32/v5.00/bin/bin/../../lib/gcc/pic32m/13.2.1/../../../../pic32m/lib/libpic32.a(vector26.o)
 .MIPS.abiflags
                0x00000000       0x18 /opt/microchip/xc32/v5.00/bin/bin/../../lib/gcc/pic32m/13.2.1/../../../../pic32m/lib/libpic32.a(vector26.o)
 .pdr           0x00000000       0x20 /opt/microchip/xc32/v5.00/bin/bin/../../lib/gcc/pic32m/13.2.1/../../../../pic32m/lib/libpic32.a(vector26.o)
 .xc_stack_usage.hdr
                0x00000000        0xe /opt/microchip/xc32/v5.00/bin/bin/../../lib/gcc/pic32m/13.2.1/../../../../pic32m/lib/libpic32.a(vector26.o)
 .xc_stack_usage
                0x00000000       0x22 /opt/microchip/xc32/v5.00/bin/bin/../../lib/gcc/pic32m/13.2.1/../../../../pic32m/lib/libpic32.a(vector26.o)
 .reginfo       0x00000000       0x18 /opt/microchip/xc32/v5.00/bin/bin/../../lib/gcc/pic32m/13.2.1/../../../../pic32m/lib/libpic32.a(vector27.o)
 .MIPS.abiflags
                0x00000000       0x18 /opt/microchip/xc32/v5.00/bin/bin/../../lib/gcc/pic32m/13.2.1/../../../../pic32m/lib/libpic32.a(vector27.o)
 .pdr           0x00000000       0x20 /opt/microchip/xc32/v5.00/bin/bin/../../lib/gcc/pic32m/13.2.1/../../../../pic32m/lib/libpic32.a(vector27.o)
 .xc_stack_usage.hdr
                0x00000000        0xe /opt/microchip/xc32/v5.00/bin/bin/../../lib/gcc/pic32m/13.2.1/../../../../pic32m/lib/libpic32.a(vector27.o)
 .xc_stack_usage
                0x00000000       0x22 /opt/microchip/xc32/v5.00/bin/bin/../../lib/gcc/pic32m/13.2.1/../../../../pic32m/lib/libpic32.a(vector27.o)
 .reginfo       0x00000000       0x18 /opt/microchip/xc32/v5.00/bin/bin/../../lib/gcc/pic32m/13.2.1/../../../../pic32m/lib/libpic32.a(vector28.o)
 .MIPS.abiflags
                0x00000000       0x18 /opt/microchip/xc32/v5.00/bin/bin/../../lib/gcc/pic32m/13.2.1/../../../../pic32m/lib/libpic32.a(vector28.o)
 .pdr           0x00000000       0x20 /opt/microchip/xc32/v5.00/bin/bin/../../lib/gcc/pic32m/13.2.1/../../../../pic32m/lib/libpic32.a(vector28.o)
 .xc_stack_usage.hdr
                0x00000000        0xe /opt/microchip/xc32/v5.00/bin/bin/../../lib/gcc/pic32m/13.2.1/../../../../pic32m/lib/libpic32.a(vector28.o)
 .xc_stack_usage
                0x00000000       0x22 /opt/microchip/xc32/v5.00/bin/bin/../../lib/gcc/pic32m/13.2.1/../../../../pic32m/lib/libpic32.a(vector28.o)
 .reginfo       0x00000000       0x18 /opt/microchip/xc32/v5.00/bin/bin/../../lib/gcc/pic32m/13.2.1/../../../../pic32m/lib/libpic32.a(vector29.o)
 .MIPS.abiflags
                0x00000000       0x18 /opt/microchip/xc32/v5.00/bin/bin/../../lib/gcc/pic32m/13.2.1/../../../../pic32m/lib/libpic32.a(vector29.o)
 .pdr           0x00000000       0x20 /opt/microchip/xc32/v5.00/bin/bin/../../lib/gcc/pic32m/13.2.1/../../../../pic32m/lib/libpic32.a(vector29.o)
 .xc_stack_usage.hdr
                0x00000000        0xe /opt/microchip/xc32/v5.00/bin/bin/../../lib/gcc/pic32m/13.2.1/../../../../pic32m/lib/libpic32.a(vector29.o)
 .xc_stack_usage
                0x00000000       0x22 /opt/microchip/xc32/v5.00/bin/bin/../../lib/gcc/pic32m/13.2.1/../../../../pic32m/lib/libpic32.a(vector29.o)
 .reginfo       0x00000000       0x18 /opt/microchip/xc32/v5.00/bin/bin/../../lib/gcc/pic32m/13.2.1/../../../../pic32m/lib/libpic32.a(vector30.o)
 .MIPS.abiflags
                0x00000000       0x18 /opt/microchip/xc32/v5.00/bin/bin/../../lib/gcc/pic32m/13.2.1/../../../../pic32m/lib/libpic32.a(vector30.o)
 .pdr           0x00000000       0x20 /opt/microchip/xc32/v5.00/bin/bin/../../lib/gcc/pic32m/13.2.1/../../../../pic32m/lib/libpic32.a(vector30.o)
 .xc_stack_usage.hdr
                0x00000000        0xe /opt/microchip/xc32/v5.00/bin/bin/../../lib/gcc/pic32m/13.2.1/../../../../pic32m/lib/libpic32.a(vector30.o)
 .xc_stack_usage
                0x00000000       0x22 /opt/microchip/xc32/v5.00/bin/bin/../../lib/gcc/pic32m/13.2.1/../../../../pic32m/lib/libpic32.a(vector30.o)
 .reginfo       0x00000000       0x18 /opt/microchip/xc32/v5.00/bin/bin/../../lib/gcc/pic32m/13.2.1/../../../../pic32m/lib/libpic32.a(vector31.o)
 .MIPS.abiflags
                0x00000000       0x18 /opt/microchip/xc32/v5.00/bin/bin/../../lib/gcc/pic32m/13.2.1/../../../../pic32m/lib/libpic32.a(vector31.o)
 .pdr           0x00000000       0x20 /opt/microchip/xc32/v5.00/bin/bin/../../lib/gcc/pic32m/13.2.1/../../../../pic32m/lib/libpic32.a(vector31.o)
 .xc_stack_usage.hdr
                0x00000000        0xe /opt/microchip/xc32/v5.00/bin/bin/../../lib/gcc/pic32m/13.2.1/../../../../pic32m/lib/libpic32.a(vector31.o)
 .xc_stack_usage
                0x00000000       0x22 /opt/microchip/xc32/v5.00/bin/bin/../../lib/gcc/pic32m/13.2.1/../../../../pic32m/lib/libpic32.a(vector31.o)
 .reginfo       0x00000000       0x18 /opt/microchip/xc32/v5.00/bin/bin/../../lib/gcc/pic32m/13.2.1/../../../../pic32m/lib/libpic32.a(vector32.o)
 .MIPS.abiflags
                0x00000000       0x18 /opt/microchip/xc32/v5.00/bin/bin/../../lib/gcc/pic32m/13.2.1/../../../../pic32m/lib/libpic32.a(vector32.o)
 .pdr           0x00000000       0x20 /opt/microchip/xc32/v5.00/bin/bin/../../lib/gcc/pic32m/13.2.1/../../../../pic32m/lib/libpic32.a(vector32.o)
 .xc_stack_usage.hdr
                0x00000000        0xe /opt/microchip/xc32/v5.00/bin/bin/../../lib/gcc/pic32m/13.2.1/../../../../pic32m/lib/libpic32.a(vector32.o)
 .xc_stack_usage
                0x00000000       0x22 /opt/microchip/xc32/v5.00/bin/bin/../../lib/gcc/pic32m/13.2.1/../../../../pic32m/lib/libpic32.a(vector32.o)
 .reginfo       0x00000000       0x18 /opt/microchip/xc32/v5.00/bin/bin/../../lib/gcc/pic32m/13.2.1/../../../../pic32m/lib/libpic32.a(vector33.o)
 .MIPS.abiflags
                0x00000000       0x18 /opt/microchip/xc32/v5.00/bin/bin/../../lib/gcc/pic32m/13.2.1/../../../../pic32m/lib/libpic32.a(vector33.o)
 .pdr           0x00000000       0x20 /opt/microchip/xc32/v5.00/bin/bin/../../lib/gcc/pic32m/13.2.1/../../../../pic32m/lib/libpic32.a(vector33.o)
 .xc_stack_usage.hdr
                0x00000000        0xe /opt/microchip/xc32/v5.00/bin/bin/../../lib/gcc/pic32m/13.2.1/../../../../pic32m/lib/libpic32.a(vector33.o)
 .xc_stack_usage
                0x00000000       0x22 /opt/microchip/xc32/v5.00/bin/bin/../../lib/gcc/pic32m/13.2.1/../../../../pic32m/lib/libpic32.a(vector33.o)
 .reginfo       0x00000000       0x18 /opt/microchip/xc32/v5.00/bin/bin/../../lib/gcc/pic32m/13.2.1/../../../../pic32m/lib/libpic32.a(vector34.o)
 .MIPS.abiflags
                0x00000000       0x18 /opt/microchip/xc32/v5.00/bin/bin/../../lib/gcc/pic32m/13.2.1/../../../../pic32m/lib/libpic32.a(vector34.o)
 .pdr           0x00000000       0x20 /opt/microchip/xc32/v5.00/bin/bin/../../lib/gcc/pic32m/13.2.1/../../../../pic32m/lib/libpic32.a(vector34.o)
 .xc_stack_usage.hdr
                0x00000000        0xe /opt/microchip/xc32/v5.00/bin/bin/../../lib/gcc/pic32m/13.2.1/../../../../pic32m/lib/libpic32.a(vector34.o)
 .xc_stack_usage
                0x00000000       0x22 /opt/microchip/xc32/v5.00/bin/bin/../../lib/gcc/pic32m/13.2.1/../../../../pic32m/lib/libpic32.a(vector34.o)
 .reginfo       0x00000000       0x18 /opt/microchip/xc32/v5.00/bin/bin/../../lib/gcc/pic32m/13.2.1/../../../../pic32m/lib/libpic32.a(vector35.o)
 .MIPS.abiflags
                0x00000000       0x18 /opt/microchip/xc32/v5.00/bin/bin/../../lib/gcc/pic32m/13.2.1/../../../../pic32m/lib/libpic32.a(vector35.o)
 .pdr           0x00000000       0x20 /opt/microchip/xc32/v5.00/bin/bin/../../lib/gcc/pic32m/13.2.1/../../../../pic32m/lib/libpic32.a(vector35.o)
 .xc_stack_usage.hdr
                0x00000000        0xe /opt/microchip/xc32/v5.00/bin/bin/../../lib/gcc/pic32m/13.2.1/../../../../pic32m/lib/libpic32.a(vector35.o)
 .xc_stack_usage
                0x00000000       0x22 /opt/microchip/xc32/v5.00/bin/bin/../../lib/gcc/pic32m/13.2.1/../../../../pic32m/lib/libpic32.a(vector35.o)
 .reginfo       0x00000000       0x18 /opt/microchip/xc32/v5.00/bin/bin/../../lib/gcc/pic32m/13.2.1/../../../../pic32m/lib/libpic32.a(vector36.o)
 .MIPS.abiflags
                0x00000000       0x18 /opt/microchip/xc32/v5.00/bin/bin/../../lib/gcc/pic32m/13.2.1/../../../../pic32m/lib/libpic32.a(vector36.o)
 .pdr           0x00000000       0x20 /opt/microchip/xc32/v5.00/bin/bin/../../lib/gcc/pic32m/13.2.1/../../../../pic32m/lib/libpic32.a(vector36.o)
 .xc_stack_usage.hdr
                0x00000000        0xe /opt/microchip/xc32/v5.00/bin/bin/../../lib/gcc/pic32m/13.2.1/../../../../pic32m/lib/libpic32.a(vector36.o)
 .xc_stack_usage
                0x00000000       0x22 /opt/microchip/xc32/v5.00/bin/bin/../../lib/gcc/pic32m/13.2.1/../../../../pic32m/lib/libpic32.a(vector36.o)
 .reginfo       0x00000000       0x18 /opt/microchip/xc32/v5.00/bin/bin/../../lib/gcc/pic32m/13.2.1/../../../../pic32m/lib/libpic32.a(vector37.o)
 .MIPS.abiflags
                0x00000000       0x18 /opt/microchip/xc32/v5.00/bin/bin/../../lib/gcc/pic32m/13.2.1/../../../../pic32m/lib/libpic32.a(vector37.o)
 .pdr           0x00000000       0x20 /opt/microchip/xc32/v5.00/bin/bin/../../lib/gcc/pic32m/13.2.1/../../../../pic32m/lib/libpic32.a(vector37.o)
 .xc_stack_usage.hdr
                0x00000000        0xe /opt/microchip/xc32/v5.00/bin/bin/../../lib/gcc/pic32m/13.2.1/../../../../pic32m/lib/libpic32.a(vector37.o)
 .xc_stack_usage
                0x00000000       0x22 /opt/microchip/xc32/v5.00/bin/bin/../../lib/gcc/pic32m/13.2.1/../../../../pic32m/lib/libpic32.a(vector37.o)
 .reginfo       0x00000000       0x18 /opt/microchip/xc32/v5.00/bin/bin/../../lib/gcc/pic32m/13.2.1/../../../../pic32m/lib/libpic32.a(vector38.o)
 .MIPS.abiflags
                0x00000000       0x18 /opt/microchip/xc32/v5.00/bin/bin/../../lib/gcc/pic32m/13.2.1/../../../../pic32m/lib/libpic32.a(vector38.o)
 .pdr           0x00000000       0x20 /opt/microchip/xc32/v5.00/bin/bin/../../lib/gcc/pic32m/13.2.1/../../../../pic32m/lib/libpic32.a(vector38.o)
 .xc_stack_usage.hdr
                0x00000000        0xe /opt/microchip/xc32/v5.00/bin/bin/../../lib/gcc/pic32m/13.2.1/../../../../pic32m/lib/libpic32.a(vector38.o)
 .xc_stack_usage
                0x00000000       0x22 /opt/microchip/xc32/v5.00/bin/bin/../../lib/gcc/pic32m/13.2.1/../../../../pic32m/lib/libpic32.a(vector38.o)
 .reginfo       0x00000000       0x18 /opt/microchip/xc32/v5.00/bin/bin/../../lib/gcc/pic32m/13.2.1/../../../../pic32m/lib/libpic32.a(vector39.o)
 .MIPS.abiflags
                0x00000000       0x18 /opt/microchip/xc32/v5.00/bin/bin/../../lib/gcc/pic32m/13.2.1/../../../../pic32m/lib/libpic32.a(vector39.o)
 .pdr           0x00000000       0x20 /opt/microchip/xc32/v5.00/bin/bin/../../lib/gcc/pic32m/13.2.1/../../../../pic32m/lib/libpic32.a(vector39.o)
 .xc_stack_usage.hdr
                0x00000000        0xe /opt/microchip/xc32/v5.00/bin/bin/../../lib/gcc/pic32m/13.2.1/../../../../pic32m/lib/libpic32.a(vector39.o)
 .xc_stack_usage
                0x00000000       0x22 /opt/microchip/xc32/v5.00/bin/bin/../../lib/gcc/pic32m/13.2.1/../../../../pic32m/lib/libpic32.a(vector39.o)
 .reginfo       0x00000000       0x18 /opt/microchip/xc32/v5.00/bin/bin/../../lib/gcc/pic32m/13.2.1/../../../../pic32m/lib/libpic32.a(vector40.o)
 .MIPS.abiflags
                0x00000000       0x18 /opt/microchip/xc32/v5.00/bin/bin/../../lib/gcc/pic32m/13.2.1/../../../../pic32m/lib/libpic32.a(vector40.o)
 .pdr           0x00000000       0x20 /opt/microchip/xc32/v5.00/bin/bin/../../lib/gcc/pic32m/13.2.1/../../../../pic32m/lib/libpic32.a(vector40.o)
 .xc_stack_usage.hdr
                0x00000000        0xe /opt/microchip/xc32/v5.00/bin/bin/../../lib/gcc/pic32m/13.2.1/../../../../pic32m/lib/libpic32.a(vector40.o)
 .xc_stack_usage
                0x00000000       0x22 /opt/microchip/xc32/v5.00/bin/bin/../../lib/gcc/pic32m/13.2.1/../../../../pic32m/lib/libpic32.a(vector40.o)
 .reginfo       0x00000000       0x18 /opt/microchip/xc32/v5.00/bin/bin/../../lib/gcc/pic32m/13.2.1/../../../../pic32m/lib/libpic32.a(vector41.o)
 .MIPS.abiflags
                0x00000000       0x18 /opt/microchip/xc32/v5.00/bin/bin/../../lib/gcc/pic32m/13.2.1/../../../../pic32m/lib/libpic32.a(vector41.o)
 .pdr           0x00000000       0x20 /opt/microchip/xc32/v5.00/bin/bin/../../lib/gcc/pic32m/13.2.1/../../../../pic32m/lib/libpic32.a(vector41.o)
 .xc_stack_usage.hdr
                0x00000000        0xe /opt/microchip/xc32/v5.00/bin/bin/../../lib/gcc/pic32m/13.2.1/../../../../pic32m/lib/libpic32.a(vector41.o)
 .xc_stack_usage
                0x00000000       0x22 /opt/microchip/xc32/v5.00/bin/bin/../../lib/gcc/pic32m/13.2.1/../../../../pic32m/lib/libpic32.a(vector41.o)
 .reginfo       0x00000000       0x18 /opt/microchip/xc32/v5.00/bin/bin/../../lib/gcc/pic32m/13.2.1/../../../../pic32m/lib/libpic32.a(vector42.o)
 .MIPS.abiflags
                0x00000000       0x18 /opt/microchip/xc32/v5.00/bin/bin/../../lib/gcc/pic32m/13.2.1/../../../../pic32m/lib/libpic32.a(vector42.o)
 .pdr           0x00000000       0x20 /opt/microchip/xc32/v5.00/bin/bin/../../lib/gcc/pic32m/13.2.1/../../../../pic32m/lib/libpic32.a(vector42.o)
 .xc_stack_usage.hdr
                0x00000000        0xe /opt/microchip/xc32/v5.00/bin/bin/../../lib/gcc/pic32m/13.2.1/../../../../pic32m/lib/libpic32.a(vector42.o)
 .xc_stack_usage
                0x00000000       0x22 /opt/microchip/xc32/v5.00/bin/bin/../../lib/gcc/pic32m/13.2.1/../../../../pic32m/lib/libpic32.a(vector42.o)
 .reginfo       0x00000000       0x18 /opt/microchip/xc32/v5.00/bin/bin/../../lib/gcc/pic32m/13.2.1/../../../../pic32m/lib/libpic32.a(vector43.o)
 .MIPS.abiflags
                0x00000000       0x18 /opt/microchip/xc32/v5.00/bin/bin/../../lib/gcc/pic32m/13.2.1/../../../../pic32m/lib/libpic32.a(vector43.o)
 .pdr           0x00000000       0x20 /opt/microchip/xc32/v5.00/bin/bin/../../lib/gcc/pic32m/13.2.1/../../../../pic32m/lib/libpic32.a(vector43.o)
 .xc_stack_usage.hdr
                0x00000000        0xe /opt/microchip/xc32/v5.00/bin/bin/../../lib/gcc/pic32m/13.2.1/../../../../pic32m/lib/libpic32.a(vector43.o)
 .xc_stack_usage
                0x00000000       0x22 /opt/microchip/xc32/v5.00/bin/bin/../../lib/gcc/pic32m/13.2.1/../../../../pic32m/lib/libpic32.a(vector43.o)
 .reginfo       0x00000000       0x18 /opt/microchip/xc32/v5.00/bin/bin/../../lib/gcc/pic32m/13.2.1/../../../../pic32m/lib/libpic32.a(default-general-exception-handler.o)
 .MIPS.abiflags
                0x00000000       0x18 /opt/microchip/xc32/v5.00/bin/bin/../../lib/gcc/pic32m/13.2.1/../../../../pic32m/lib/libpic32.a(default-general-exception-handler.o)
 .pdr           0x00000000       0x20 /opt/microchip/xc32/v5.00/bin/bin/../../lib/gcc/pic32m/13.2.1/../../../../pic32m/lib/libpic32.a(default-general-exception-handler.o)
 .xc_stack_usage
                0x00000000       0x28 /opt/microchip/xc32/v5.00/bin/bin/../../lib/gcc/pic32m/13.2.1/../../../../pic32m/lib/libpic32.a(default-general-exception-handler.o)
 .xc_stack_usage.hdr
                0x00000000        0xe /opt/microchip/xc32/v5.00/bin/bin/../../lib/gcc/pic32m/13.2.1/../../../../pic32m/lib/libpic32.a(default-general-exception-handler.o)
 .reginfo       0x00000000       0x18 /opt/microchip/xc32/v5.00/bin/bin/../../lib/gcc/pic32m/13.2.1/../../../../pic32m/lib/libpic32.a(defaultinterrupt.o)
 .MIPS.abiflags
                0x00000000       0x18 /opt/microchip/xc32/v5.00/bin/bin/../../lib/gcc/pic32m/13.2.1/../../../../pic32m/lib/libpic32.a(defaultinterrupt.o)
 .pdr           0x00000000       0x20 /opt/microchip/xc32/v5.00/bin/bin/../../lib/gcc/pic32m/13.2.1/../../../../pic32m/lib/libpic32.a(defaultinterrupt.o)
 .xc_stack_usage
                0x00000000       0x1f /opt/microchip/xc32/v5.00/bin/bin/../../lib/gcc/pic32m/13.2.1/../../../../pic32m/lib/libpic32.a(defaultinterrupt.o)
 .xc_stack_usage.hdr
                0x00000000        0xe /opt/microchip/xc32/v5.00/bin/bin/../../lib/gcc/pic32m/13.2.1/../../../../pic32m/lib/libpic32.a(defaultinterrupt.o)
 .reginfo       0x00000000       0x18 /opt/microchip/xc32/v5.00/bin/bin/../../lib/gcc/pic32m/13.2.1/../../../../pic32m/lib/libc-musl.a(assert.o)
 .MIPS.abiflags
                0x00000000       0x18 /opt/microchip/xc32/v5.00/bin/bin/../../lib/gcc/pic32m/13.2.1/../../../../pic32m/lib/libc-musl.a(assert.o)
 .pdr           0x00000000       0x20 /opt/microchip/xc32/v5.00/bin/bin/../../lib/gcc/pic32m/13.2.1/../../../../pic32m/lib/libc-musl.a(assert.o)
 .xc_stack_usage
                0x00000000       0x1b /opt/microchip/xc32/v5.00/bin/bin/../../lib/gcc/pic32m/13.2.1/../../../../pic32m/lib/libc-musl.a(assert.o)
 .xc_stack_usage.hdr
                0x00000000        0xe /opt/microchip/xc32/v5.00/bin/bin/../../lib/gcc/pic32m/13.2.1/../../../../pic32m/lib/libc-musl.a(assert.o)
 .note.GNU-stack
                0x00000000        0x0 /opt/microchip/xc32/v5.00/bin/bin/../../lib/gcc/pic32m/13.2.1/../../../../pic32m/lib/libc-musl.a(assert.o)
 .reginfo       0x00000000       0x18 /opt/microchip/xc32/v5.00/bin/bin/../../lib/gcc/pic32m/13.2.1/../../../../pic32m/lib/libc-musl.a(abort.o)
 .MIPS.abiflags
                0x00000000       0x18 /opt/microchip/xc32/v5.00/bin/bin/../../lib/gcc/pic32m/13.2.1/../../../../pic32m/lib/libc-musl.a(abort.o)
 .pdr           0x00000000       0x20 /opt/microchip/xc32/v5.00/bin/bin/../../lib/gcc/pic32m/13.2.1/../../../../pic32m/lib/libc-musl.a(abort.o)
 .xc_stack_usage
                0x00000000       0x15 /opt/microchip/xc32/v5.00/bin/bin/../../lib/gcc/pic32m/13.2.1/../../../../pic32m/lib/libc-musl.a(abort.o)
 .xc_stack_usage.hdr
                0x00000000        0xe /opt/microchip/xc32/v5.00/bin/bin/../../lib/gcc/pic32m/13.2.1/../../../../pic32m/lib/libc-musl.a(abort.o)
 .note.GNU-stack
                0x00000000        0x0 /opt/microchip/xc32/v5.00/bin/bin/../../lib/gcc/pic32m/13.2.1/../../../../pic32m/lib/libc-musl.a(abort.o)
 .reginfo       0x00000000       0x18 /opt/microchip/xc32/v5.00/bin/bin/../../lib/gcc/pic32m/13.2.1/../../../../pic32m/lib/libc-musl.a(fprintf.o)
 .MIPS.abiflags
                0x00000000       0x18 /opt/microchip/xc32/v5.00/bin/bin/../../lib/gcc/pic32m/13.2.1/../../../../pic32m/lib/libc-musl.a(fprintf.o)
 .pdr           0x00000000       0x20 /opt/microchip/xc32/v5.00/bin/bin/../../lib/gcc/pic32m/13.2.1/../../../../pic32m/lib/libc-musl.a(fprintf.o)
 .xc_stack_usage
                0x00000000       0x15 /opt/microchip/xc32/v5.00/bin/bin/../../lib/gcc/pic32m/13.2.1/../../../../pic32m/lib/libc-musl.a(fprintf.o)
 .xc_stack_usage.hdr
                0x00000000        0xe /opt/microchip/xc32/v5.00/bin/bin/../../lib/gcc/pic32m/13.2.1/../../../../pic32m/lib/libc-musl.a(fprintf.o)
 .note.GNU-stack
                0x00000000        0x0 /opt/microchip/xc32/v5.00/bin/bin/../../lib/gcc/pic32m/13.2.1/../../../../pic32m/lib/libc-musl.a(fprintf.o)
 .reginfo       0x00000000       0x18 /opt/microchip/xc32/v5.00/bin/bin/../../lib/gcc/pic32m/13.2.1/../../../../pic32m/lib/libc-musl.a(fflush.o)
 .MIPS.abiflags
                0x00000000       0x18 /opt/microchip/xc32/v5.00/bin/bin/../../lib/gcc/pic32m/13.2.1/../../../../pic32m/lib/libc-musl.a(fflush.o)
 .pdr           0x00000000       0x60 /opt/microchip/xc32/v5.00/bin/bin/../../lib/gcc/pic32m/13.2.1/../../../../pic32m/lib/libc-musl.a(fflush.o)
 .xc_stack_usage
                0x00000000       0x40 /opt/microchip/xc32/v5.00/bin/bin/../../lib/gcc/pic32m/13.2.1/../../../../pic32m/lib/libc-musl.a(fflush.o)
 .xc_stack_usage.hdr
                0x00000000        0xe /opt/microchip/xc32/v5.00/bin/bin/../../lib/gcc/pic32m/13.2.1/../../../../pic32m/lib/libc-musl.a(fflush.o)
 .note.GNU-stack
                0x00000000        0x0 /opt/microchip/xc32/v5.00/bin/bin/../../lib/gcc/pic32m/13.2.1/../../../../pic32m/lib/libc-musl.a(fflush.o)
 .reginfo       0x00000000       0x18 /opt/microchip/xc32/v5.00/bin/bin/../../lib/gcc/pic32m/13.2.1/../../../../pic32m/lib/libc-musl.a(vfprintf.o)
 .MIPS.abiflags
                0x00000000       0x18 /opt/microchip/xc32/v5.00/bin/bin/../../lib/gcc/pic32m/13.2.1/../../../../pic32m/lib/libc-musl.a(vfprintf.o)
 .pdr           0x00000000       0x40 /opt/microchip/xc32/v5.00/bin/bin/../../lib/gcc/pic32m/13.2.1/../../../../pic32m/lib/libc-musl.a(vfprintf.o)
 .xc_stack_usage
                0x00000000       0x38 /opt/microchip/xc32/v5.00/bin/bin/../../lib/gcc/pic32m/13.2.1/../../../../pic32m/lib/libc-musl.a(vfprintf.o)
 __xc_reference_data
                0x00000000       0x10 /opt/microchip/xc32/v5.00/bin/bin/../../lib/gcc/pic32m/13.2.1/../../../../pic32m/lib/libc-musl.a(vfprintf.o)
 .xc_stack_usage.hdr
                0x00000000        0xe /opt/microchip/xc32/v5.00/bin/bin/../../lib/gcc/pic32m/13.2.1/../../../../pic32m/lib/libc-musl.a(vfprintf.o)
 .note.GNU-stack
                0x00000000        0x0 /opt/microchip/xc32/v5.00/bin/bin/../../lib/gcc/pic32m/13.2.1/../../../../pic32m/lib/libc-musl.a(vfprintf.o)
 .reginfo       0x00000000       0x18 /opt/microchip/xc32/v5.00/bin/bin/../../lib/gcc/pic32m/13.2.1/../../../../pic32m/lib/libc-musl.a(stderr.o)
 .MIPS.abiflags
                0x00000000       0x18 /opt/microchip/xc32/v5.00/bin/bin/../../lib/gcc/pic32m/13.2.1/../../../../pic32m/lib/libc-musl.a(stderr.o)
 .pdr           0x00000000       0x80 /opt/microchip/xc32/v5.00/bin/bin/../../lib/gcc/pic32m/13.2.1/../../../../pic32m/lib/libc-musl.a(stderr.o)
 .xc_stack_usage
                0x00000000       0x6b /opt/microchip/xc32/v5.00/bin/bin/../../lib/gcc/pic32m/13.2.1/../../../../pic32m/lib/libc-musl.a(stderr.o)
 __xc_reference_data
                0x00000000       0x10 /opt/microchip/xc32/v5.00/bin/bin/../../lib/gcc/pic32m/13.2.1/../../../../pic32m/lib/libc-musl.a(stderr.o)
 .xc_stack_usage.hdr
                0x00000000        0xe /opt/microchip/xc32/v5.00/bin/bin/../../lib/gcc/pic32m/13.2.1/../../../../pic32m/lib/libc-musl.a(stderr.o)
 .note.GNU-stack
                0x00000000        0x0 /opt/microchip/xc32/v5.00/bin/bin/../../lib/gcc/pic32m/13.2.1/../../../../pic32m/lib/libc-musl.a(stderr.o)
 .reginfo       0x00000000       0x18 /opt/microchip/xc32/v5.00/bin/bin/../../lib/gcc/pic32m/13.2.1/../../../../pic32m/lib/libc-musl.a(putchar.o)
 .MIPS.abiflags
                0x00000000       0x18 /opt/microchip/xc32/v5.00/bin/bin/../../lib/gcc/pic32m/13.2.1/../../../../pic32m/lib/libc-musl.a(putchar.o)
 .pdr           0x00000000       0x20 /opt/microchip/xc32/v5.00/bin/bin/../../lib/gcc/pic32m/13.2.1/../../../../pic32m/lib/libc-musl.a(putchar.o)
 .xc_stack_usage
                0x00000000       0x15 /opt/microchip/xc32/v5.00/bin/bin/../../lib/gcc/pic32m/13.2.1/../../../../pic32m/lib/libc-musl.a(putchar.o)
 .xc_stack_usage.hdr
                0x00000000        0xe /opt/microchip/xc32/v5.00/bin/bin/../../lib/gcc/pic32m/13.2.1/../../../../pic32m/lib/libc-musl.a(putchar.o)
 .note.GNU-stack
                0x00000000        0x0 /opt/microchip/xc32/v5.00/bin/bin/../../lib/gcc/pic32m/13.2.1/../../../../pic32m/lib/libc-musl.a(putchar.o)
 .reginfo       0x00000000       0x18 /opt/microchip/xc32/v5.00/bin/bin/../../lib/gcc/pic32m/13.2.1/../../../../pic32m/lib/libc-musl.a(puts.o)
 .MIPS.abiflags
                0x00000000       0x18 /opt/microchip/xc32/v5.00/bin/bin/../../lib/gcc/pic32m/13.2.1/../../../../pic32m/lib/libc-musl.a(puts.o)
 .pdr           0x00000000       0x20 /opt/microchip/xc32/v5.00/bin/bin/../../lib/gcc/pic32m/13.2.1/../../../../pic32m/lib/libc-musl.a(puts.o)
 .xc_stack_usage
                0x00000000       0x12 /opt/microchip/xc32/v5.00/bin/bin/../../lib/gcc/pic32m/13.2.1/../../../../pic32m/lib/libc-musl.a(puts.o)
 .xc_stack_usage.hdr
                0x00000000        0xe /opt/microchip/xc32/v5.00/bin/bin/../../lib/gcc/pic32m/13.2.1/../../../../pic32m/lib/libc-musl.a(puts.o)
 .note.GNU-stack
                0x00000000        0x0 /opt/microchip/xc32/v5.00/bin/bin/../../lib/gcc/pic32m/13.2.1/../../../../pic32m/lib/libc-musl.a(puts.o)
 .reginfo       0x00000000       0x18 /opt/microchip/xc32/v5.00/bin/bin/../../lib/gcc/pic32m/13.2.1/../../../../pic32m/lib/libc-musl.a(_Exit.o)
 .MIPS.abiflags
                0x00000000       0x18 /opt/microchip/xc32/v5.00/bin/bin/../../lib/gcc/pic32m/13.2.1/../../../../pic32m/lib/libc-musl.a(_Exit.o)
 .pdr           0x00000000       0x20 /opt/microchip/xc32/v5.00/bin/bin/../../lib/gcc/pic32m/13.2.1/../../../../pic32m/lib/libc-musl.a(_Exit.o)
 .xc_stack_usage
                0x00000000       0x13 /opt/microchip/xc32/v5.00/bin/bin/../../lib/gcc/pic32m/13.2.1/../../../../pic32m/lib/libc-musl.a(_Exit.o)
 .xc_stack_usage.hdr
                0x00000000        0xe /opt/microchip/xc32/v5.00/bin/bin/../../lib/gcc/pic32m/13.2.1/../../../../pic32m/lib/libc-musl.a(_Exit.o)
 .note.GNU-stack
                0x00000000        0x0 /opt/microchip/xc32/v5.00/bin/bin/../../lib/gcc/pic32m/13.2.1/../../../../pic32m/lib/libc-musl.a(_Exit.o)
 .reginfo       0x00000000       0x18 /opt/microchip/xc32/v5.00/bin/bin/../../lib/gcc/pic32m/13.2.1/../../../../pic32m/lib/libc-musl.a(fputs.o)
 .MIPS.abiflags
                0x00000000       0x18 /opt/microchip/xc32/v5.00/bin/bin/../../lib/gcc/pic32m/13.2.1/../../../../pic32m/lib/libc-musl.a(fputs.o)
 .pdr           0x00000000       0x20 /opt/microchip/xc32/v5.00/bin/bin/../../lib/gcc/pic32m/13.2.1/../../../../pic32m/lib/libc-musl.a(fputs.o)
 .xc_stack_usage
                0x00000000       0x13 /opt/microchip/xc32/v5.00/bin/bin/../../lib/gcc/pic32m/13.2.1/../../../../pic32m/lib/libc-musl.a(fputs.o)
 .xc_stack_usage.hdr
                0x00000000        0xe /opt/microchip/xc32/v5.00/bin/bin/../../lib/gcc/pic32m/13.2.1/../../../../pic32m/lib/libc-musl.a(fputs.o)
 .note.GNU-stack
                0x00000000        0x0 /opt/microchip/xc32/v5.00/bin/bin/../../lib/gcc/pic32m/13.2.1/../../../../pic32m/lib/libc-musl.a(fputs.o)
 .reginfo       0x00000000       0x18 /opt/microchip/xc32/v5.00/bin/bin/../../lib/gcc/pic32m/13.2.1/../../../../pic32m/lib/libc-musl.a(__io_fmt_needed.o)
 .MIPS.abiflags
                0x00000000       0x18 /opt/microchip/xc32/v5.00/bin/bin/../../lib/gcc/pic32m/13.2.1/../../../../pic32m/lib/libc-musl.a(__io_fmt_needed.o)
 .pdr           0x00000000       0x20 /opt/microchip/xc32/v5.00/bin/bin/../../lib/gcc/pic32m/13.2.1/../../../../pic32m/lib/libc-musl.a(__io_fmt_needed.o)
 .xc_stack_usage
                0x00000000       0x1d /opt/microchip/xc32/v5.00/bin/bin/../../lib/gcc/pic32m/13.2.1/../../../../pic32m/lib/libc-musl.a(__io_fmt_needed.o)
 __xc_reference_data
                0x00000000       0xac /opt/microchip/xc32/v5.00/bin/bin/../../lib/gcc/pic32m/13.2.1/../../../../pic32m/lib/libc-musl.a(__io_fmt_needed.o)
 .xc_stack_usage.hdr
                0x00000000        0xe /opt/microchip/xc32/v5.00/bin/bin/../../lib/gcc/pic32m/13.2.1/../../../../pic32m/lib/libc-musl.a(__io_fmt_needed.o)
 .note.GNU-stack
                0x00000000        0x0 /opt/microchip/xc32/v5.00/bin/bin/../../lib/gcc/pic32m/13.2.1/../../../../pic32m/lib/libc-musl.a(__io_fmt_needed.o)
 .reginfo       0x00000000       0x18 /opt/microchip/xc32/v5.00/bin/bin/../../lib/gcc/pic32m/13.2.1/../../../../pic32m/lib/libc-musl.a(__io_init_needed.o)
 .MIPS.abiflags
                0x00000000       0x18 /opt/microchip/xc32/v5.00/bin/bin/../../lib/gcc/pic32m/13.2.1/../../../../pic32m/lib/libc-musl.a(__io_init_needed.o)
 .pdr           0x00000000       0x40 /opt/microchip/xc32/v5.00/bin/bin/../../lib/gcc/pic32m/13.2.1/../../../../pic32m/lib/libc-musl.a(__io_init_needed.o)
 .xc_stack_usage
                0x00000000       0x40 /opt/microchip/xc32/v5.00/bin/bin/../../lib/gcc/pic32m/13.2.1/../../../../pic32m/lib/libc-musl.a(__io_init_needed.o)
 __xc_reference_data
                0x00000000       0x20 /opt/microchip/xc32/v5.00/bin/bin/../../lib/gcc/pic32m/13.2.1/../../../../pic32m/lib/libc-musl.a(__io_init_needed.o)
 .xc_stack_usage.hdr
                0x00000000        0xe /opt/microchip/xc32/v5.00/bin/bin/../../lib/gcc/pic32m/13.2.1/../../../../pic32m/lib/libc-musl.a(__io_init_needed.o)
 .note.GNU-stack
                0x00000000        0x0 /opt/microchip/xc32/v5.00/bin/bin/../../lib/gcc/pic32m/13.2.1/../../../../pic32m/lib/libc-musl.a(__io_init_needed.o)
 .reginfo       0x00000000       0x18 /opt/microchip/xc32/v5.00/bin/bin/../../lib/gcc/pic32m/13.2.1/../../../../pic32m/lib/libc-musl.a(__out.o)
 .MIPS.abiflags
                0x00000000       0x18 /opt/microchip/xc32/v5.00/bin/bin/../../lib/gcc/pic32m/13.2.1/../../../../pic32m/lib/libc-musl.a(__out.o)
 .pdr           0x00000000       0x40 /opt/microchip/xc32/v5.00/bin/bin/../../lib/gcc/pic32m/13.2.1/../../../../pic32m/lib/libc-musl.a(__out.o)
 .xc_stack_usage
                0x00000000       0x2d /opt/microchip/xc32/v5.00/bin/bin/../../lib/gcc/pic32m/13.2.1/../../../../pic32m/lib/libc-musl.a(__out.o)
 .xc_stack_usage.hdr
                0x00000000        0xe /opt/microchip/xc32/v5.00/bin/bin/../../lib/gcc/pic32m/13.2.1/../../../../pic32m/lib/libc-musl.a(__out.o)
 .note.GNU-stack
                0x00000000        0x0 /opt/microchip/xc32/v5.00/bin/bin/../../lib/gcc/pic32m/13.2.1/../../../../pic32m/lib/libc-musl.a(__out.o)
 .reginfo       0x00000000       0x18 /opt/microchip/xc32/v5.00/bin/bin/../../lib/gcc/pic32m/13.2.1/../../../../pic32m/lib/libc-musl.a(__pop_float.o)
 .MIPS.abiflags
                0x00000000       0x18 /opt/microchip/xc32/v5.00/bin/bin/../../lib/gcc/pic32m/13.2.1/../../../../pic32m/lib/libc-musl.a(__pop_float.o)
 .pdr           0x00000000       0x20 /opt/microchip/xc32/v5.00/bin/bin/../../lib/gcc/pic32m/13.2.1/../../../../pic32m/lib/libc-musl.a(__pop_float.o)
 .xc_stack_usage
                0x00000000       0x19 /opt/microchip/xc32/v5.00/bin/bin/../../lib/gcc/pic32m/13.2.1/../../../../pic32m/lib/libc-musl.a(__pop_float.o)
 .xc_stack_usage.hdr
                0x00000000        0xe /opt/microchip/xc32/v5.00/bin/bin/../../lib/gcc/pic32m/13.2.1/../../../../pic32m/lib/libc-musl.a(__pop_float.o)
 .note.GNU-stack
                0x00000000        0x0 /opt/microchip/xc32/v5.00/bin/bin/../../lib/gcc/pic32m/13.2.1/../../../../pic32m/lib/libc-musl.a(__pop_float.o)
 .reginfo       0x00000000       0x18 /opt/microchip/xc32/v5.00/bin/bin/../../lib/gcc/pic32m/13.2.1/../../../../pic32m/lib/libc-musl.a(__pop_int.o)
 .MIPS.abiflags
                0x00000000       0x18 /opt/microchip/xc32/v5.00/bin/bin/../../lib/gcc/pic32m/13.2.1/../../../../pic32m/lib/libc-musl.a(__pop_int.o)
 .pdr           0x00000000       0x20 /opt/microchip/xc32/v5.00/bin/bin/../../lib/gcc/pic32m/13.2.1/../../../../pic32m/lib/libc-musl.a(__pop_int.o)
 .xc_stack_usage
                0x00000000       0x17 /opt/microchip/xc32/v5.00/bin/bin/../../lib/gcc/pic32m/13.2.1/../../../../pic32m/lib/libc-musl.a(__pop_int.o)
 .xc_stack_usage.hdr
                0x00000000        0xe /opt/microchip/xc32/v5.00/bin/bin/../../lib/gcc/pic32m/13.2.1/../../../../pic32m/lib/libc-musl.a(__pop_int.o)
 .note.GNU-stack
                0x00000000        0x0 /opt/microchip/xc32/v5.00/bin/bin/../../lib/gcc/pic32m/13.2.1/../../../../pic32m/lib/libc-musl.a(__pop_int.o)
 .reginfo       0x00000000       0x18 /opt/microchip/xc32/v5.00/bin/bin/../../lib/gcc/pic32m/13.2.1/../../../../pic32m/lib/libc-musl.a(__pop_ptr.o)
 .MIPS.abiflags
                0x00000000       0x18 /opt/microchip/xc32/v5.00/bin/bin/../../lib/gcc/pic32m/13.2.1/../../../../pic32m/lib/libc-musl.a(__pop_ptr.o)
 .pdr           0x00000000       0x20 /opt/microchip/xc32/v5.00/bin/bin/../../lib/gcc/pic32m/13.2.1/../../../../pic32m/lib/libc-musl.a(__pop_ptr.o)
 .xc_stack_usage
                0x00000000       0x17 /opt/microchip/xc32/v5.00/bin/bin/../../lib/gcc/pic32m/13.2.1/../../../../pic32m/lib/libc-musl.a(__pop_ptr.o)
 .xc_stack_usage.hdr
                0x00000000        0xe /opt/microchip/xc32/v5.00/bin/bin/../../lib/gcc/pic32m/13.2.1/../../../../pic32m/lib/libc-musl.a(__pop_ptr.o)
 .note.GNU-stack
                0x00000000        0x0 /opt/microchip/xc32/v5.00/bin/bin/../../lib/gcc/pic32m/13.2.1/../../../../pic32m/lib/libc-musl.a(__pop_ptr.o)
 .reginfo       0x00000000       0x18 /opt/microchip/xc32/v5.00/bin/bin/../../lib/gcc/pic32m/13.2.1/../../../../pic32m/lib/libc-musl.a(__printf_core.o)
 .MIPS.abiflags
                0x00000000       0x18 /opt/microchip/xc32/v5.00/bin/bin/../../lib/gcc/pic32m/13.2.1/../../../../pic32m/lib/libc-musl.a(__printf_core.o)
 .pdr           0x00000000       0xe0 /opt/microchip/xc32/v5.00/bin/bin/../../lib/gcc/pic32m/13.2.1/../../../../pic32m/lib/libc-musl.a(__printf_core.o)
 .xc_stack_usage
                0x00000000       0xaf /opt/microchip/xc32/v5.00/bin/bin/../../lib/gcc/pic32m/13.2.1/../../../../pic32m/lib/libc-musl.a(__printf_core.o)
 .xc_stack_usage.hdr
                0x00000000        0xe /opt/microchip/xc32/v5.00/bin/bin/../../lib/gcc/pic32m/13.2.1/../../../../pic32m/lib/libc-musl.a(__printf_core.o)
 .note.GNU-stack
                0x00000000        0x0 /opt/microchip/xc32/v5.00/bin/bin/../../lib/gcc/pic32m/13.2.1/../../../../pic32m/lib/libc-musl.a(__printf_core.o)
 .reginfo       0x00000000       0x18 /opt/microchip/xc32/v5.00/bin/bin/../../lib/gcc/pic32m/13.2.1/../../../../pic32m/lib/libc-musl.a(__stdio_close.o)
 .MIPS.abiflags
                0x00000000       0x18 /opt/microchip/xc32/v5.00/bin/bin/../../lib/gcc/pic32m/13.2.1/../../../../pic32m/lib/libc-musl.a(__stdio_close.o)
 .pdr           0x00000000       0x40 /opt/microchip/xc32/v5.00/bin/bin/../../lib/gcc/pic32m/13.2.1/../../../../pic32m/lib/libc-musl.a(__stdio_close.o)
 .xc_stack_usage
                0x00000000       0x39 /opt/microchip/xc32/v5.00/bin/bin/../../lib/gcc/pic32m/13.2.1/../../../../pic32m/lib/libc-musl.a(__stdio_close.o)
 .xc_stack_usage.hdr
                0x00000000        0xe /opt/microchip/xc32/v5.00/bin/bin/../../lib/gcc/pic32m/13.2.1/../../../../pic32m/lib/libc-musl.a(__stdio_close.o)
 .note.GNU-stack
                0x00000000        0x0 /opt/microchip/xc32/v5.00/bin/bin/../../lib/gcc/pic32m/13.2.1/../../../../pic32m/lib/libc-musl.a(__stdio_close.o)
 .reginfo       0x00000000       0x18 /opt/microchip/xc32/v5.00/bin/bin/../../lib/gcc/pic32m/13.2.1/../../../../pic32m/lib/libc-musl.a(fwrite.o)
 .MIPS.abiflags
                0x00000000       0x18 /opt/microchip/xc32/v5.00/bin/bin/../../lib/gcc/pic32m/13.2.1/../../../../pic32m/lib/libc-musl.a(fwrite.o)
 .pdr           0x00000000       0x40 /opt/microchip/xc32/v5.00/bin/bin/../../lib/gcc/pic32m/13.2.1/../../../../pic32m/lib/libc-musl.a(fwrite.o)
 .xc_stack_usage
                0x00000000       0x2e /opt/microchip/xc32/v5.00/bin/bin/../../lib/gcc/pic32m/13.2.1/../../../../pic32m/lib/libc-musl.a(fwrite.o)
 .xc_stack_usage.hdr
                0x00000000        0xe /opt/microchip/xc32/v5.00/bin/bin/../../lib/gcc/pic32m/13.2.1/../../../../pic32m/lib/libc-musl.a(fwrite.o)
 .note.GNU-stack
                0x00000000        0x0 /opt/microchip/xc32/v5.00/bin/bin/../../lib/gcc/pic32m/13.2.1/../../../../pic32m/lib/libc-musl.a(fwrite.o)
 .reginfo       0x00000000       0x18 /opt/microchip/xc32/v5.00/bin/bin/../../lib/gcc/pic32m/13.2.1/../../../../pic32m/lib/libc-musl.a(putc.o)
 .MIPS.abiflags
                0x00000000       0x18 /opt/microchip/xc32/v5.00/bin/bin/../../lib/gcc/pic32m/13.2.1/../../../../pic32m/lib/libc-musl.a(putc.o)
 .pdr           0x00000000       0x60 /opt/microchip/xc32/v5.00/bin/bin/../../lib/gcc/pic32m/13.2.1/../../../../pic32m/lib/libc-musl.a(putc.o)
 .xc_stack_usage
                0x00000000       0x4f /opt/microchip/xc32/v5.00/bin/bin/../../lib/gcc/pic32m/13.2.1/../../../../pic32m/lib/libc-musl.a(putc.o)
 __xc_reference_data
                0x00000000       0x10 /opt/microchip/xc32/v5.00/bin/bin/../../lib/gcc/pic32m/13.2.1/../../../../pic32m/lib/libc-musl.a(putc.o)
 .xc_stack_usage.hdr
                0x00000000        0xe /opt/microchip/xc32/v5.00/bin/bin/../../lib/gcc/pic32m/13.2.1/../../../../pic32m/lib/libc-musl.a(putc.o)
 .note.GNU-stack
                0x00000000        0x0 /opt/microchip/xc32/v5.00/bin/bin/../../lib/gcc/pic32m/13.2.1/../../../../pic32m/lib/libc-musl.a(putc.o)
 .reginfo       0x00000000       0x18 /opt/microchip/xc32/v5.00/bin/bin/../../lib/gcc/pic32m/13.2.1/../../../../pic32m/lib/libc-musl.a(stdout.o)
 .MIPS.abiflags
                0x00000000       0x18 /opt/microchip/xc32/v5.00/bin/bin/../../lib/gcc/pic32m/13.2.1/../../../../pic32m/lib/libc-musl.a(stdout.o)
 .pdr           0x00000000       0x60 /opt/microchip/xc32/v5.00/bin/bin/../../lib/gcc/pic32m/13.2.1/../../../../pic32m/lib/libc-musl.a(stdout.o)
 .xc_stack_usage
                0x00000000       0x51 /opt/microchip/xc32/v5.00/bin/bin/../../lib/gcc/pic32m/13.2.1/../../../../pic32m/lib/libc-musl.a(stdout.o)
 __xc_reference_data
                0x00000000       0x10 /opt/microchip/xc32/v5.00/bin/bin/../../lib/gcc/pic32m/13.2.1/../../../../pic32m/lib/libc-musl.a(stdout.o)
 .xc_stack_usage.hdr
                0x00000000        0xe /opt/microchip/xc32/v5.00/bin/bin/../../lib/gcc/pic32m/13.2.1/../../../../pic32m/lib/libc-musl.a(stdout.o)
 .note.GNU-stack
                0x00000000        0x0 /opt/microchip/xc32/v5.00/bin/bin/../../lib/gcc/pic32m/13.2.1/../../../../pic32m/lib/libc-musl.a(stdout.o)
 .reginfo       0x00000000       0x18 /opt/microchip/xc32/v5.00/bin/bin/../../lib/gcc/pic32m/13.2.1/../../../../pic32m/lib/libc-musl.a(atoi.o)
 .MIPS.abiflags
                0x00000000       0x18 /opt/microchip/xc32/v5.00/bin/bin/../../lib/gcc/pic32m/13.2.1/../../../../pic32m/lib/libc-musl.a(atoi.o)
 .pdr           0x00000000       0x20 /opt/microchip/xc32/v5.00/bin/bin/../../lib/gcc/pic32m/13.2.1/../../../../pic32m/lib/libc-musl.a(atoi.o)
 .xc_stack_usage
                0x00000000       0x12 /opt/microchip/xc32/v5.00/bin/bin/../../lib/gcc/pic32m/13.2.1/../../../../pic32m/lib/libc-musl.a(atoi.o)
 .xc_stack_usage.hdr
                0x00000000        0xe /opt/microchip/xc32/v5.00/bin/bin/../../lib/gcc/pic32m/13.2.1/../../../../pic32m/lib/libc-musl.a(atoi.o)
 .note.GNU-stack
                0x00000000        0x0 /opt/microchip/xc32/v5.00/bin/bin/../../lib/gcc/pic32m/13.2.1/../../../../pic32m/lib/libc-musl.a(atoi.o)
 .reginfo       0x00000000       0x18 /opt/microchip/xc32/v5.00/bin/bin/../../lib/gcc/pic32m/13.2.1/../../../../pic32m/lib/libc-musl.a(tolower.o)
 .MIPS.abiflags
                0x00000000       0x18 /opt/microchip/xc32/v5.00/bin/bin/../../lib/gcc/pic32m/13.2.1/../../../../pic32m/lib/libc-musl.a(tolower.o)
 .pdr           0x00000000       0x40 /opt/microchip/xc32/v5.00/bin/bin/../../lib/gcc/pic32m/13.2.1/../../../../pic32m/lib/libc-musl.a(tolower.o)
 .xc_stack_usage
                0x00000000       0x2e /opt/microchip/xc32/v5.00/bin/bin/../../lib/gcc/pic32m/13.2.1/../../../../pic32m/lib/libc-musl.a(tolower.o)
 .xc_stack_usage.hdr
                0x00000000        0xe /opt/microchip/xc32/v5.00/bin/bin/../../lib/gcc/pic32m/13.2.1/../../../../pic32m/lib/libc-musl.a(tolower.o)
 .note.GNU-stack
                0x00000000        0x0 /opt/microchip/xc32/v5.00/bin/bin/../../lib/gcc/pic32m/13.2.1/../../../../pic32m/lib/libc-musl.a(tolower.o)
 .reginfo       0x00000000       0x18 /opt/microchip/xc32/v5.00/bin/bin/../../lib/gcc/pic32m/13.2.1/../../../../pic32m/lib/libc-musl.a(__fmt_a.o)
 .MIPS.abiflags
                0x00000000       0x18 /opt/microchip/xc32/v5.00/bin/bin/../../lib/gcc/pic32m/13.2.1/../../../../pic32m/lib/libc-musl.a(__fmt_a.o)
 .pdr           0x00000000       0x20 /opt/microchip/xc32/v5.00/bin/bin/../../lib/gcc/pic32m/13.2.1/../../../../pic32m/lib/libc-musl.a(__fmt_a.o)
 .xc_stack_usage
                0x00000000       0x15 /opt/microchip/xc32/v5.00/bin/bin/../../lib/gcc/pic32m/13.2.1/../../../../pic32m/lib/libc-musl.a(__fmt_a.o)
 .xc_stack_usage.hdr
                0x00000000        0xe /opt/microchip/xc32/v5.00/bin/bin/../../lib/gcc/pic32m/13.2.1/../../../../pic32m/lib/libc-musl.a(__fmt_a.o)
 .note.GNU-stack
                0x00000000        0x0 /opt/microchip/xc32/v5.00/bin/bin/../../lib/gcc/pic32m/13.2.1/../../../../pic32m/lib/libc-musl.a(__fmt_a.o)
 .reginfo       0x00000000       0x18 /opt/microchip/xc32/v5.00/bin/bin/../../lib/gcc/pic32m/13.2.1/../../../../pic32m/lib/libc-musl.a(__fmt_d.o)
 .MIPS.abiflags
                0x00000000       0x18 /opt/microchip/xc32/v5.00/bin/bin/../../lib/gcc/pic32m/13.2.1/../../../../pic32m/lib/libc-musl.a(__fmt_d.o)
 .pdr           0x00000000       0x20 /opt/microchip/xc32/v5.00/bin/bin/../../lib/gcc/pic32m/13.2.1/../../../../pic32m/lib/libc-musl.a(__fmt_d.o)
 .xc_stack_usage
                0x00000000       0x15 /opt/microchip/xc32/v5.00/bin/bin/../../lib/gcc/pic32m/13.2.1/../../../../pic32m/lib/libc-musl.a(__fmt_d.o)
 .xc_stack_usage.hdr
                0x00000000        0xe /opt/microchip/xc32/v5.00/bin/bin/../../lib/gcc/pic32m/13.2.1/../../../../pic32m/lib/libc-musl.a(__fmt_d.o)
 .note.GNU-stack
                0x00000000        0x0 /opt/microchip/xc32/v5.00/bin/bin/../../lib/gcc/pic32m/13.2.1/../../../../pic32m/lib/libc-musl.a(__fmt_d.o)
 .reginfo       0x00000000       0x18 /opt/microchip/xc32/v5.00/bin/bin/../../lib/gcc/pic32m/13.2.1/../../../../pic32m/lib/libc-musl.a(__fmt_fp.o)
 .MIPS.abiflags
                0x00000000       0x18 /opt/microchip/xc32/v5.00/bin/bin/../../lib/gcc/pic32m/13.2.1/../../../../pic32m/lib/libc-musl.a(__fmt_fp.o)
 .pdr           0x00000000       0x20 /opt/microchip/xc32/v5.00/bin/bin/../../lib/gcc/pic32m/13.2.1/../../../../pic32m/lib/libc-musl.a(__fmt_fp.o)
 .xc_stack_usage
                0x00000000       0x16 /opt/microchip/xc32/v5.00/bin/bin/../../lib/gcc/pic32m/13.2.1/../../../../pic32m/lib/libc-musl.a(__fmt_fp.o)
 .xc_stack_usage.hdr
                0x00000000        0xe /opt/microchip/xc32/v5.00/bin/bin/../../lib/gcc/pic32m/13.2.1/../../../../pic32m/lib/libc-musl.a(__fmt_fp.o)
 .note.GNU-stack
                0x00000000        0x0 /opt/microchip/xc32/v5.00/bin/bin/../../lib/gcc/pic32m/13.2.1/../../../../pic32m/lib/libc-musl.a(__fmt_fp.o)
 .reginfo       0x00000000       0x18 /opt/microchip/xc32/v5.00/bin/bin/../../lib/gcc/pic32m/13.2.1/../../../../pic32m/lib/libc-musl.a(__fmt_o.o)
 .MIPS.abiflags
                0x00000000       0x18 /opt/microchip/xc32/v5.00/bin/bin/../../lib/gcc/pic32m/13.2.1/../../../../pic32m/lib/libc-musl.a(__fmt_o.o)
 .pdr           0x00000000       0x20 /opt/microchip/xc32/v5.00/bin/bin/../../lib/gcc/pic32m/13.2.1/../../../../pic32m/lib/libc-musl.a(__fmt_o.o)
 .xc_stack_usage
                0x00000000       0x15 /opt/microchip/xc32/v5.00/bin/bin/../../lib/gcc/pic32m/13.2.1/../../../../pic32m/lib/libc-musl.a(__fmt_o.o)
 .xc_stack_usage.hdr
                0x00000000        0xe /opt/microchip/xc32/v5.00/bin/bin/../../lib/gcc/pic32m/13.2.1/../../../../pic32m/lib/libc-musl.a(__fmt_o.o)
 .note.GNU-stack
                0x00000000        0x0 /opt/microchip/xc32/v5.00/bin/bin/../../lib/gcc/pic32m/13.2.1/../../../../pic32m/lib/libc-musl.a(__fmt_o.o)
 .reginfo       0x00000000       0x18 /opt/microchip/xc32/v5.00/bin/bin/../../lib/gcc/pic32m/13.2.1/../../../../pic32m/lib/libc-musl.a(__fmt_s.o)
 .MIPS.abiflags
                0x00000000       0x18 /opt/microchip/xc32/v5.00/bin/bin/../../lib/gcc/pic32m/13.2.1/../../../../pic32m/lib/libc-musl.a(__fmt_s.o)
 .pdr           0x00000000       0x20 /opt/microchip/xc32/v5.00/bin/bin/../../lib/gcc/pic32m/13.2.1/../../../../pic32m/lib/libc-musl.a(__fmt_s.o)
 .xc_stack_usage
                0x00000000       0x15 /opt/microchip/xc32/v5.00/bin/bin/../../lib/gcc/pic32m/13.2.1/../../../../pic32m/lib/libc-musl.a(__fmt_s.o)
 .xc_stack_usage.hdr
                0x00000000        0xe /opt/microchip/xc32/v5.00/bin/bin/../../lib/gcc/pic32m/13.2.1/../../../../pic32m/lib/libc-musl.a(__fmt_s.o)
 .note.GNU-stack
                0x00000000        0x0 /opt/microchip/xc32/v5.00/bin/bin/../../lib/gcc/pic32m/13.2.1/../../../../pic32m/lib/libc-musl.a(__fmt_s.o)
 .reginfo       0x00000000       0x18 /opt/microchip/xc32/v5.00/bin/bin/../../lib/gcc/pic32m/13.2.1/../../../../pic32m/lib/libc-musl.a(__fmt_u.o)
 .MIPS.abiflags
                0x00000000       0x18 /opt/microchip/xc32/v5.00/bin/bin/../../lib/gcc/pic32m/13.2.1/../../../../pic32m/lib/libc-musl.a(__fmt_u.o)
 .pdr           0x00000000       0x20 /opt/microchip/xc32/v5.00/bin/bin/../../lib/gcc/pic32m/13.2.1/../../../../pic32m/lib/libc-musl.a(__fmt_u.o)
 .xc_stack_usage
                0x00000000       0x15 /opt/microchip/xc32/v5.00/bin/bin/../../lib/gcc/pic32m/13.2.1/../../../../pic32m/lib/libc-musl.a(__fmt_u.o)
 .xc_stack_usage.hdr
                0x00000000        0xe /opt/microchip/xc32/v5.00/bin/bin/../../lib/gcc/pic32m/13.2.1/../../../../pic32m/lib/libc-musl.a(__fmt_u.o)
 .note.GNU-stack
                0x00000000        0x0 /opt/microchip/xc32/v5.00/bin/bin/../../lib/gcc/pic32m/13.2.1/../../../../pic32m/lib/libc-musl.a(__fmt_u.o)
 .reginfo       0x00000000       0x18 /opt/microchip/xc32/v5.00/bin/bin/../../lib/gcc/pic32m/13.2.1/../../../../pic32m/lib/libc-musl.a(__fmt_x.o)
 .MIPS.abiflags
                0x00000000       0x18 /opt/microchip/xc32/v5.00/bin/bin/../../lib/gcc/pic32m/13.2.1/../../../../pic32m/lib/libc-musl.a(__fmt_x.o)
 .pdr           0x00000000       0x20 /opt/microchip/xc32/v5.00/bin/bin/../../lib/gcc/pic32m/13.2.1/../../../../pic32m/lib/libc-musl.a(__fmt_x.o)
 .xc_stack_usage
                0x00000000       0x15 /opt/microchip/xc32/v5.00/bin/bin/../../lib/gcc/pic32m/13.2.1/../../../../pic32m/lib/libc-musl.a(__fmt_x.o)
 .xc_stack_usage.hdr
                0x00000000        0xe /opt/microchip/xc32/v5.00/bin/bin/../../lib/gcc/pic32m/13.2.1/../../../../pic32m/lib/libc-musl.a(__fmt_x.o)
 .note.GNU-stack
                0x00000000        0x0 /opt/microchip/xc32/v5.00/bin/bin/../../lib/gcc/pic32m/13.2.1/../../../../pic32m/lib/libc-musl.a(__fmt_x.o)
 .reginfo       0x00000000       0x18 /opt/microchip/xc32/v5.00/bin/bin/../../lib/gcc/pic32m/13.2.1/../../../../pic32m/lib/libc-musl.a(__init_stdio.o)
 .MIPS.abiflags
                0x00000000       0x18 /opt/microchip/xc32/v5.00/bin/bin/../../lib/gcc/pic32m/13.2.1/../../../../pic32m/lib/libc-musl.a(__init_stdio.o)
 .pdr           0x00000000       0x40 /opt/microchip/xc32/v5.00/bin/bin/../../lib/gcc/pic32m/13.2.1/../../../../pic32m/lib/libc-musl.a(__init_stdio.o)
 .xc_stack_usage
                0x00000000       0x2f /opt/microchip/xc32/v5.00/bin/bin/../../lib/gcc/pic32m/13.2.1/../../../../pic32m/lib/libc-musl.a(__init_stdio.o)
 .xc_stack_usage.hdr
                0x00000000        0xe /opt/microchip/xc32/v5.00/bin/bin/../../lib/gcc/pic32m/13.2.1/../../../../pic32m/lib/libc-musl.a(__init_stdio.o)
 .note.GNU-stack
                0x00000000        0x0 /opt/microchip/xc32/v5.00/bin/bin/../../lib/gcc/pic32m/13.2.1/../../../../pic32m/lib/libc-musl.a(__init_stdio.o)
 .reginfo       0x00000000       0x18 /opt/microchip/xc32/v5.00/bin/bin/../../lib/gcc/pic32m/13.2.1/../../../../pic32m/lib/libc-musl.a(__io_file_needed.o)
 .MIPS.abiflags
                0x00000000       0x18 /opt/microchip/xc32/v5.00/bin/bin/../../lib/gcc/pic32m/13.2.1/../../../../pic32m/lib/libc-musl.a(__io_file_needed.o)
 .pdr           0x00000000       0x20 /opt/microchip/xc32/v5.00/bin/bin/../../lib/gcc/pic32m/13.2.1/../../../../pic32m/lib/libc-musl.a(__io_file_needed.o)
 .xc_stack_usage
                0x00000000       0x1e /opt/microchip/xc32/v5.00/bin/bin/../../lib/gcc/pic32m/13.2.1/../../../../pic32m/lib/libc-musl.a(__io_file_needed.o)
 __xc_reference_data
                0x00000000       0x10 /opt/microchip/xc32/v5.00/bin/bin/../../lib/gcc/pic32m/13.2.1/../../../../pic32m/lib/libc-musl.a(__io_file_needed.o)
 .xc_stack_usage.hdr
                0x00000000        0xe /opt/microchip/xc32/v5.00/bin/bin/../../lib/gcc/pic32m/13.2.1/../../../../pic32m/lib/libc-musl.a(__io_file_needed.o)
 .note.GNU-stack
                0x00000000        0x0 /opt/microchip/xc32/v5.00/bin/bin/../../lib/gcc/pic32m/13.2.1/../../../../pic32m/lib/libc-musl.a(__io_file_needed.o)
 .reginfo       0x00000000       0x18 /opt/microchip/xc32/v5.00/bin/bin/../../lib/gcc/pic32m/13.2.1/../../../../pic32m/lib/libc-musl.a(toupper.o)
 .MIPS.abiflags
                0x00000000       0x18 /opt/microchip/xc32/v5.00/bin/bin/../../lib/gcc/pic32m/13.2.1/../../../../pic32m/lib/libc-musl.a(toupper.o)
 .pdr           0x00000000       0x40 /opt/microchip/xc32/v5.00/bin/bin/../../lib/gcc/pic32m/13.2.1/../../../../pic32m/lib/libc-musl.a(toupper.o)
 .xc_stack_usage
                0x00000000       0x2e /opt/microchip/xc32/v5.00/bin/bin/../../lib/gcc/pic32m/13.2.1/../../../../pic32m/lib/libc-musl.a(toupper.o)
 .xc_stack_usage.hdr
                0x00000000        0xe /opt/microchip/xc32/v5.00/bin/bin/../../lib/gcc/pic32m/13.2.1/../../../../pic32m/lib/libc-musl.a(toupper.o)
 .note.GNU-stack
                0x00000000        0x0 /opt/microchip/xc32/v5.00/bin/bin/../../lib/gcc/pic32m/13.2.1/../../../../pic32m/lib/libc-musl.a(toupper.o)
 .reginfo       0x00000000       0x18 /opt/microchip/xc32/v5.00/bin/bin/../../lib/gcc/pic32m/13.2.1/../../../../pic32m/lib/libc-musl.a(__cvt_u.o)
 .MIPS.abiflags
                0x00000000       0x18 /opt/microchip/xc32/v5.00/bin/bin/../../lib/gcc/pic32m/13.2.1/../../../../pic32m/lib/libc-musl.a(__cvt_u.o)
 .pdr           0x00000000       0x20 /opt/microchip/xc32/v5.00/bin/bin/../../lib/gcc/pic32m/13.2.1/../../../../pic32m/lib/libc-musl.a(__cvt_u.o)
 .xc_stack_usage
                0x00000000       0x15 /opt/microchip/xc32/v5.00/bin/bin/../../lib/gcc/pic32m/13.2.1/../../../../pic32m/lib/libc-musl.a(__cvt_u.o)
 .xc_stack_usage.hdr
                0x00000000        0xe /opt/microchip/xc32/v5.00/bin/bin/../../lib/gcc/pic32m/13.2.1/../../../../pic32m/lib/libc-musl.a(__cvt_u.o)
 .note.GNU-stack
                0x00000000        0x0 /opt/microchip/xc32/v5.00/bin/bin/../../lib/gcc/pic32m/13.2.1/../../../../pic32m/lib/libc-musl.a(__cvt_u.o)
 .reginfo       0x00000000       0x18 /opt/microchip/xc32/v5.00/bin/bin/../../lib/gcc/pic32m/13.2.1/../../../../pic32m/lib/libm.a(floor32.o)
 .MIPS.abiflags
                0x00000000       0x18 /opt/microchip/xc32/v5.00/bin/bin/../../lib/gcc/pic32m/13.2.1/../../../../pic32m/lib/libm.a(floor32.o)
 .pdr           0x00000000        0x0 /opt/microchip/xc32/v5.00/bin/bin/../../lib/gcc/pic32m/13.2.1/../../../../pic32m/lib/libm.a(floor32.o)
 .reginfo       0x00000000       0x18 /opt/microchip/xc32/v5.00/bin/bin/../../lib/gcc/pic32m/13.2.1/../../../../pic32m/lib/libm.a(dp32div.o)
 .MIPS.abiflags
                0x00000000       0x18 /opt/microchip/xc32/v5.00/bin/bin/../../lib/gcc/pic32m/13.2.1/../../../../pic32m/lib/libm.a(dp32div.o)
 .pdr           0x00000000        0x0 /opt/microchip/xc32/v5.00/bin/bin/../../lib/gcc/pic32m/13.2.1/../../../../pic32m/lib/libm.a(dp32div.o)
 .reginfo       0x00000000       0x18 /opt/microchip/xc32/v5.00/bin/bin/../../lib/gcc/pic32m/13.2.1/../../../../pic32m/lib/libm.a(dp32mul.o)
 .MIPS.abiflags
                0x00000000       0x18 /opt/microchip/xc32/v5.00/bin/bin/../../lib/gcc/pic32m/13.2.1/../../../../pic32m/lib/libm.a(dp32mul.o)
 .pdr           0x00000000        0x0 /opt/microchip/xc32/v5.00/bin/bin/../../lib/gcc/pic32m/13.2.1/../../../../pic32m/lib/libm.a(dp32mul.o)
 .reginfo       0x00000000       0x18 /opt/microchip/xc32/v5.00/bin/bin/../../lib/gcc/pic32m/13.2.1/../../../../pic32m/lib/libm.a(dp32subadd.o)
 .MIPS.abiflags
                0x00000000       0x18 /opt/microchip/xc32/v5.00/bin/bin/../../lib/gcc/pic32m/13.2.1/../../../../pic32m/lib/libm.a(dp32subadd.o)
 .pdr           0x00000000        0x0 /opt/microchip/xc32/v5.00/bin/bin/../../lib/gcc/pic32m/13.2.1/../../../../pic32m/lib/libm.a(dp32subadd.o)
 .reginfo       0x00000000       0x18 /opt/microchip/xc32/v5.00/bin/bin/../../lib/gcc/pic32m/13.2.1/../../../../pic32m/lib/libm.a(dpcmp.o)
 .MIPS.abiflags
                0x00000000       0x18 /opt/microchip/xc32/v5.00/bin/bin/../../lib/gcc/pic32m/13.2.1/../../../../pic32m/lib/libm.a(dpcmp.o)
 .pdr           0x00000000        0x0 /opt/microchip/xc32/v5.00/bin/bin/../../lib/gcc/pic32m/13.2.1/../../../../pic32m/lib/libm.a(dpcmp.o)
 .reginfo       0x00000000       0x18 /opt/microchip/xc32/v5.00/bin/bin/../../lib/gcc/pic32m/13.2.1/../../../../pic32m/lib/libm.a(dpcmplt.o)
 .MIPS.abiflags
                0x00000000       0x18 /opt/microchip/xc32/v5.00/bin/bin/../../lib/gcc/pic32m/13.2.1/../../../../pic32m/lib/libm.a(dpcmplt.o)
 .pdr           0x00000000        0x0 /opt/microchip/xc32/v5.00/bin/bin/../../lib/gcc/pic32m/13.2.1/../../../../pic32m/lib/libm.a(dpcmplt.o)
 .xc_stack_usage.hdr
                0x00000000        0xe /opt/microchip/xc32/v5.00/bin/bin/../../lib/gcc/pic32m/13.2.1/../../../../pic32m/lib/libm.a(dpcmplt.o)
 .xc_stack_usage
                0x00000000       0x15 /opt/microchip/xc32/v5.00/bin/bin/../../lib/gcc/pic32m/13.2.1/../../../../pic32m/lib/libm.a(dpcmplt.o)
 .reginfo       0x00000000       0x18 /opt/microchip/xc32/v5.00/bin/bin/../../lib/gcc/pic32m/13.2.1/../../../../pic32m/lib/libm.a(dptoli.o)
 .MIPS.abiflags
                0x00000000       0x18 /opt/microchip/xc32/v5.00/bin/bin/../../lib/gcc/pic32m/13.2.1/../../../../pic32m/lib/libm.a(dptoli.o)
 .pdr           0x00000000        0x0 /opt/microchip/xc32/v5.00/bin/bin/../../lib/gcc/pic32m/13.2.1/../../../../pic32m/lib/libm.a(dptoli.o)
 .reginfo       0x00000000       0x18 /opt/microchip/xc32/v5.00/bin/bin/../../lib/gcc/pic32m/13.2.1/../../../../pic32m/lib/libm.a(fp32div.o)
 .MIPS.abiflags
                0x00000000       0x18 /opt/microchip/xc32/v5.00/bin/bin/../../lib/gcc/pic32m/13.2.1/../../../../pic32m/lib/libm.a(fp32div.o)
 .pdr           0x00000000        0x0 /opt/microchip/xc32/v5.00/bin/bin/../../lib/gcc/pic32m/13.2.1/../../../../pic32m/lib/libm.a(fp32div.o)
 .reginfo       0x00000000       0x18 /opt/microchip/xc32/v5.00/bin/bin/../../lib/gcc/pic32m/13.2.1/../../../../pic32m/lib/libm.a(fp32mul.o)
 .MIPS.abiflags
                0x00000000       0x18 /opt/microchip/xc32/v5.00/bin/bin/../../lib/gcc/pic32m/13.2.1/../../../../pic32m/lib/libm.a(fp32mul.o)
 .pdr           0x00000000        0x0 /opt/microchip/xc32/v5.00/bin/bin/../../lib/gcc/pic32m/13.2.1/../../../../pic32m/lib/libm.a(fp32mul.o)
 .reginfo       0x00000000       0x18 /opt/microchip/xc32/v5.00/bin/bin/../../lib/gcc/pic32m/13.2.1/../../../../pic32m/lib/libm.a(fp32subadd.o)
 .MIPS.abiflags
                0x00000000       0x18 /opt/microchip/xc32/v5.00/bin/bin/../../lib/gcc/pic32m/13.2.1/../../../../pic32m/lib/libm.a(fp32subadd.o)
 .pdr           0x00000000        0x0 /opt/microchip/xc32/v5.00/bin/bin/../../lib/gcc/pic32m/13.2.1/../../../../pic32m/lib/libm.a(fp32subadd.o)
 .reginfo       0x00000000       0x18 /opt/microchip/xc32/v5.00/bin/bin/../../lib/gcc/pic32m/13.2.1/../../../../pic32m/lib/libm.a(sitofp.o)
 .MIPS.abiflags
                0x00000000       0x18 /opt/microchip/xc32/v5.00/bin/bin/../../lib/gcc/pic32m/13.2.1/../../../../pic32m/lib/libm.a(sitofp.o)
 .pdr           0x00000000        0x0 /opt/microchip/xc32/v5.00/bin/bin/../../lib/gcc/pic32m/13.2.1/../../../../pic32m/lib/libm.a(sitofp.o)
 .reginfo       0x00000000       0x18 /opt/microchip/xc32/v5.00/bin/bin/../../lib/gcc/pic32m/13.2.1/../../../../pic32m/lib/libm-musl.a(fma.o)
 .MIPS.abiflags
                0x00000000       0x18 /opt/microchip/xc32/v5.00/bin/bin/../../lib/gcc/pic32m/13.2.1/../../../../pic32m/lib/libm-musl.a(fma.o)
 .pdr           0x00000000       0x60 /opt/microchip/xc32/v5.00/bin/bin/../../lib/gcc/pic32m/13.2.1/../../../../pic32m/lib/libm-musl.a(fma.o)
 .xc_stack_usage
                0x00000000       0x3e /opt/microchip/xc32/v5.00/bin/bin/../../lib/gcc/pic32m/13.2.1/../../../../pic32m/lib/libm-musl.a(fma.o)
 .xc_stack_usage.hdr
                0x00000000        0xe /opt/microchip/xc32/v5.00/bin/bin/../../lib/gcc/pic32m/13.2.1/../../../../pic32m/lib/libm-musl.a(fma.o)
 .note.GNU-stack
                0x00000000        0x0 /opt/microchip/xc32/v5.00/bin/bin/../../lib/gcc/pic32m/13.2.1/../../../../pic32m/lib/libm-musl.a(fma.o)
 .reginfo       0x00000000       0x18 /opt/microchip/xc32/v5.00/bin/bin/../../lib/gcc/pic32m/13.2.1/../../../../pic32m/lib/libm-musl.a(scalbn.o)
 .MIPS.abiflags
                0x00000000       0x18 /opt/microchip/xc32/v5.00/bin/bin/../../lib/gcc/pic32m/13.2.1/../../../../pic32m/lib/libm-musl.a(scalbn.o)
 .pdr           0x00000000       0x20 /opt/microchip/xc32/v5.00/bin/bin/../../lib/gcc/pic32m/13.2.1/../../../../pic32m/lib/libm-musl.a(scalbn.o)
 .xc_stack_usage
                0x00000000       0x14 /opt/microchip/xc32/v5.00/bin/bin/../../lib/gcc/pic32m/13.2.1/../../../../pic32m/lib/libm-musl.a(scalbn.o)
 .xc_stack_usage.hdr
                0x00000000        0xe /opt/microchip/xc32/v5.00/bin/bin/../../lib/gcc/pic32m/13.2.1/../../../../pic32m/lib/libm-musl.a(scalbn.o)
 .note.GNU-stack
                0x00000000        0x0 /opt/microchip/xc32/v5.00/bin/bin/../../lib/gcc/pic32m/13.2.1/../../../../pic32m/lib/libm-musl.a(scalbn.o)
 .reginfo       0x00000000       0x18 /opt/microchip/xc32/v5.00/bin/bin/../../lib/gcc/pic32m/13.2.1/../../../../pic32m/lib/libpic32.a(_exit.o)
 .MIPS.abiflags
                0x00000000       0x18 /opt/microchip/xc32/v5.00/bin/bin/../../lib/gcc/pic32m/13.2.1/../../../../pic32m/lib/libpic32.a(_exit.o)
 .pdr           0x00000000       0x20 /opt/microchip/xc32/v5.00/bin/bin/../../lib/gcc/pic32m/13.2.1/../../../../pic32m/lib/libpic32.a(_exit.o)
 .xc_stack_usage
                0x00000000       0x13 /opt/microchip/xc32/v5.00/bin/bin/../../lib/gcc/pic32m/13.2.1/../../../../pic32m/lib/libpic32.a(_exit.o)
 .xc_stack_usage.hdr
                0x00000000        0xe /opt/microchip/xc32/v5.00/bin/bin/../../lib/gcc/pic32m/13.2.1/../../../../pic32m/lib/libpic32.a(_exit.o)
 .reginfo       0x00000000       0x18 /opt/microchip/xc32/v5.00/bin/bin/../../lib/gcc/pic32m/13.2.1/../../../../pic32m/lib/libpic32.a(write.o)
 .MIPS.abiflags
                0x00000000       0x18 /opt/microchip/xc32/v5.00/bin/bin/../../lib/gcc/pic32m/13.2.1/../../../../pic32m/lib/libpic32.a(write.o)
 .pdr           0x00000000       0x20 /opt/microchip/xc32/v5.00/bin/bin/../../lib/gcc/pic32m/13.2.1/../../../../pic32m/lib/libpic32.a(write.o)
 .xc_stack_usage
                0x00000000       0x13 /opt/microchip/xc32/v5.00/bin/bin/../../lib/gcc/pic32m/13.2.1/../../../../pic32m/lib/libpic32.a(write.o)
 .xc_stack_usage.hdr
                0x00000000        0xe /opt/microchip/xc32/v5.00/bin/bin/../../lib/gcc/pic32m/13.2.1/../../../../pic32m/lib/libpic32.a(write.o)
 .reginfo       0x00000000       0x18 /opt/microchip/xc32/v5.00/bin/bin/../../lib/gcc/pic32m/13.2.1/../../../../pic32m/lib/libpic32.a(lseek.o)
 .MIPS.abiflags
                0x00000000       0x18 /opt/microchip/xc32/v5.00/bin/bin/../../lib/gcc/pic32m/13.2.1/../../../../pic32m/lib/libpic32.a(lseek.o)
 .pdr           0x00000000       0x20 /opt/microchip/xc32/v5.00/bin/bin/../../lib/gcc/pic32m/13.2.1/../../../../pic32m/lib/libpic32.a(lseek.o)
 .xc_stack_usage
                0x00000000       0x13 /opt/microchip/xc32/v5.00/bin/bin/../../lib/gcc/pic32m/13.2.1/../../../../pic32m/lib/libpic32.a(lseek.o)
 .xc_stack_usage.hdr
                0x00000000        0xe /opt/microchip/xc32/v5.00/bin/bin/../../lib/gcc/pic32m/13.2.1/../../../../pic32m/lib/libpic32.a(lseek.o)
 .reginfo       0x00000000       0x18 /opt/microchip/xc32/v5.00/bin/bin/../../lib/gcc/pic32m/13.2.1/../../../../pic32m/lib/libpic32.a(close.o)
 .MIPS.abiflags
                0x00000000       0x18 /opt/microchip/xc32/v5.00/bin/bin/../../lib/gcc/pic32m/13.2.1/../../../../pic32m/lib/libpic32.a(close.o)
 .pdr           0x00000000       0x20 /opt/microchip/xc32/v5.00/bin/bin/../../lib/gcc/pic32m/13.2.1/../../../../pic32m/lib/libpic32.a(close.o)
 .xc_stack_usage
                0x00000000       0x13 /opt/microchip/xc32/v5.00/bin/bin/../../lib/gcc/pic32m/13.2.1/../../../../pic32m/lib/libpic32.a(close.o)
 .xc_stack_usage.hdr
                0x00000000        0xe /opt/microchip/xc32/v5.00/bin/bin/../../lib/gcc/pic32m/13.2.1/../../../../pic32m/lib/libpic32.a(close.o)
 .reginfo       0x00000000       0x18 /opt/microchip/xc32/v5.00/bin/bin/../../lib/gcc/pic32m/13.2.1/../../../../pic32m/lib/libpic32.a(errno.o)
 .MIPS.abiflags
                0x00000000       0x18 /opt/microchip/xc32/v5.00/bin/bin/../../lib/gcc/pic32m/13.2.1/../../../../pic32m/lib/libpic32.a(errno.o)
 .pdr           0x00000000        0x0 /opt/microchip/xc32/v5.00/bin/bin/../../lib/gcc/pic32m/13.2.1/../../../../pic32m/lib/libpic32.a(errno.o)
 .xc_stack_usage.hdr
                0x00000000        0xe /opt/microchip/xc32/v5.00/bin/bin/../../lib/gcc/pic32m/13.2.1/../../../../pic32m/lib/libpic32.a(errno.o)
 .reginfo       0x00000000       0x18 /opt/microchip/xc32/v5.00/bin/bin/../../lib/gcc/pic32m/13.2.1/../../../../pic32m/lib/libc-size-musl.a(memcpy.o)
 .MIPS.abiflags
                0x00000000       0x18 /opt/microchip/xc32/v5.00/bin/bin/../../lib/gcc/pic32m/13.2.1/../../../../pic32m/lib/libc-size-musl.a(memcpy.o)
 .pdr           0x00000000       0x20 /opt/microchip/xc32/v5.00/bin/bin/../../lib/gcc/pic32m/13.2.1/../../../../pic32m/lib/libc-size-musl.a(memcpy.o)
 .xc_stack_usage
                0x00000000       0x14 /opt/microchip/xc32/v5.00/bin/bin/../../lib/gcc/pic32m/13.2.1/../../../../pic32m/lib/libc-size-musl.a(memcpy.o)
 .xc_stack_usage.hdr
                0x00000000        0xe /opt/microchip/xc32/v5.00/bin/bin/../../lib/gcc/pic32m/13.2.1/../../../../pic32m/lib/libc-size-musl.a(memcpy.o)
 .note.GNU-stack
                0x00000000        0x0 /opt/microchip/xc32/v5.00/bin/bin/../../lib/gcc/pic32m/13.2.1/../../../../pic32m/lib/libc-size-musl.a(memcpy.o)
 .reginfo       0x00000000       0x18 /opt/microchip/xc32/v5.00/bin/bin/../../lib/gcc/pic32m/13.2.1/../../../../pic32m/lib/libc-size-musl.a(memset.o)
 .MIPS.abiflags
                0x00000000       0x18 /opt/microchip/xc32/v5.00/bin/bin/../../lib/gcc/pic32m/13.2.1/../../../../pic32m/lib/libc-size-musl.a(memset.o)
 .pdr           0x00000000       0x20 /opt/microchip/xc32/v5.00/bin/bin/../../lib/gcc/pic32m/13.2.1/../../../../pic32m/lib/libc-size-musl.a(memset.o)
 .xc_stack_usage
                0x00000000       0x14 /opt/microchip/xc32/v5.00/bin/bin/../../lib/gcc/pic32m/13.2.1/../../../../pic32m/lib/libc-size-musl.a(memset.o)
 .xc_stack_usage.hdr
                0x00000000        0xe /opt/microchip/xc32/v5.00/bin/bin/../../lib/gcc/pic32m/13.2.1/../../../../pic32m/lib/libc-size-musl.a(memset.o)
 .note.GNU-stack
                0x00000000        0x0 /opt/microchip/xc32/v5.00/bin/bin/../../lib/gcc/pic32m/13.2.1/../../../../pic32m/lib/libc-size-musl.a(memset.o)
 .reginfo       0x00000000       0x18 /opt/microchip/xc32/v5.00/bin/bin/../../lib/gcc/pic32m/13.2.1/../../../../pic32m/lib/libc-size-musl.a(strlen.o)
 .MIPS.abiflags
                0x00000000       0x18 /opt/microchip/xc32/v5.00/bin/bin/../../lib/gcc/pic32m/13.2.1/../../../../pic32m/lib/libc-size-musl.a(strlen.o)
 .pdr           0x00000000       0x20 /opt/microchip/xc32/v5.00/bin/bin/../../lib/gcc/pic32m/13.2.1/../../../../pic32m/lib/libc-size-musl.a(strlen.o)
 .xc_stack_usage
                0x00000000       0x14 /opt/microchip/xc32/v5.00/bin/bin/../../lib/gcc/pic32m/13.2.1/../../../../pic32m/lib/libc-size-musl.a(strlen.o)
 .xc_stack_usage.hdr
                0x00000000        0xe /opt/microchip/xc32/v5.00/bin/bin/../../lib/gcc/pic32m/13.2.1/../../../../pic32m/lib/libc-size-musl.a(strlen.o)
 .note.GNU-stack
                0x00000000        0x0 /opt/microchip/xc32/v5.00/bin/bin/../../lib/gcc/pic32m/13.2.1/../../../../pic32m/lib/libc-size-musl.a(strlen.o)
 .reginfo       0x00000000       0x18 /opt/microchip/xc32/v5.00/bin/bin/../../lib/gcc/pic32m/13.2.1/../../../../pic32m/lib/libc-size-musl.a(strcpy.o)
 .MIPS.abiflags
                0x00000000       0x18 /opt/microchip/xc32/v5.00/bin/bin/../../lib/gcc/pic32m/13.2.1/../../../../pic32m/lib/libc-size-musl.a(strcpy.o)
 .pdr           0x00000000       0x20 /opt/microchip/xc32/v5.00/bin/bin/../../lib/gcc/pic32m/13.2.1/../../../../pic32m/lib/libc-size-musl.a(strcpy.o)
 .xc_stack_usage
                0x00000000       0x14 /opt/microchip/xc32/v5.00/bin/bin/../../lib/gcc/pic32m/13.2.1/../../../../pic32m/lib/libc-size-musl.a(strcpy.o)
 .xc_stack_usage.hdr
                0x00000000        0xe /opt/microchip/xc32/v5.00/bin/bin/../../lib/gcc/pic32m/13.2.1/../../../../pic32m/lib/libc-size-musl.a(strcpy.o)
 .note.GNU-stack
                0x00000000        0x0 /opt/microchip/xc32/v5.00/bin/bin/../../lib/gcc/pic32m/13.2.1/../../../../pic32m/lib/libc-size-musl.a(strcpy.o)
 .reginfo       0x00000000       0x18 /opt/microchip/xc32/v5.00/bin/bin/../../lib/gcc/pic32m/13.2.1/../../../../pic32m/lib/libc-size-musl.a(stpcpy.o)
 .MIPS.abiflags
                0x00000000       0x18 /opt/microchip/xc32/v5.00/bin/bin/../../lib/gcc/pic32m/13.2.1/../../../../pic32m/lib/libc-size-musl.a(stpcpy.o)
 .pdr           0x00000000       0x20 /opt/microchip/xc32/v5.00/bin/bin/../../lib/gcc/pic32m/13.2.1/../../../../pic32m/lib/libc-size-musl.a(stpcpy.o)
 .xc_stack_usage
                0x00000000       0x14 /opt/microchip/xc32/v5.00/bin/bin/../../lib/gcc/pic32m/13.2.1/../../../../pic32m/lib/libc-size-musl.a(stpcpy.o)
 .xc_stack_usage.hdr
                0x00000000        0xe /opt/microchip/xc32/v5.00/bin/bin/../../lib/gcc/pic32m/13.2.1/../../../../pic32m/lib/libc-size-musl.a(stpcpy.o)
 .note.GNU-stack
                0x00000000        0x0 /opt/microchip/xc32/v5.00/bin/bin/../../lib/gcc/pic32m/13.2.1/../../../../pic32m/lib/libc-size-musl.a(stpcpy.o)
 .reginfo       0x00000000       0x18 /opt/microchip/xc32/v5.00/bin/bin/../../lib/gcc/pic32m/13.2.1/../../../../pic32m/lib/libm.a(dptofp.o)
 .MIPS.abiflags
                0x00000000       0x18 /opt/microchip/xc32/v5.00/bin/bin/../../lib/gcc/pic32m/13.2.1/../../../../pic32m/lib/libm.a(dptofp.o)
 .pdr           0x00000000        0x0 /opt/microchip/xc32/v5.00/bin/bin/../../lib/gcc/pic32m/13.2.1/../../../../pic32m/lib/libm.a(dptofp.o)
 .reginfo       0x00000000       0x18 /opt/microchip/xc32/v5.00/bin/bin/../../lib/gcc/pic32m/13.2.1/../../../../pic32m/lib/libm.a(fptodp.o)
 .MIPS.abiflags
                0x00000000       0x18 /opt/microchip/xc32/v5.00/bin/bin/../../lib/gcc/pic32m/13.2.1/../../../../pic32m/lib/libm.a(fptodp.o)
 .pdr           0x00000000        0x0 /opt/microchip/xc32/v5.00/bin/bin/../../lib/gcc/pic32m/13.2.1/../../../../pic32m/lib/libm.a(fptodp.o)
 .reginfo       0x00000000       0x18 /opt/microchip/xc32/v5.00/bin/bin/../../lib/gcc/pic32m/13.2.1/../../../../pic32m/lib/libe.a(_floatdidf.o)
 .MIPS.abiflags
                0x00000000       0x18 /opt/microchip/xc32/v5.00/bin/bin/../../lib/gcc/pic32m/13.2.1/../../../../pic32m/lib/libe.a(_floatdidf.o)
 .pdr           0x00000000       0x20 /opt/microchip/xc32/v5.00/bin/bin/../../lib/gcc/pic32m/13.2.1/../../../../pic32m/lib/libe.a(_floatdidf.o)
 .xc_stack_usage
                0x00000000       0x19 /opt/microchip/xc32/v5.00/bin/bin/../../lib/gcc/pic32m/13.2.1/../../../../pic32m/lib/libe.a(_floatdidf.o)
 .xc_stack_usage.hdr
                0x00000000        0xe /opt/microchip/xc32/v5.00/bin/bin/../../lib/gcc/pic32m/13.2.1/../../../../pic32m/lib/libe.a(_floatdidf.o)
 .reginfo       0x00000000       0x18 /opt/microchip/xc32/v5.00/bin/bin/../../lib/gcc/pic32m/13.2.1/libgcc.a(_lshrdi3.o)
 .MIPS.abiflags
                0x00000000       0x18 /opt/microchip/xc32/v5.00/bin/bin/../../lib/gcc/pic32m/13.2.1/libgcc.a(_lshrdi3.o)
 .pdr           0x00000000       0x20 /opt/microchip/xc32/v5.00/bin/bin/../../lib/gcc/pic32m/13.2.1/libgcc.a(_lshrdi3.o)
 .xc_stack_usage
                0x00000000       0x17 /opt/microchip/xc32/v5.00/bin/bin/../../lib/gcc/pic32m/13.2.1/libgcc.a(_lshrdi3.o)
 .xc_stack_usage.hdr
                0x00000000        0xe /opt/microchip/xc32/v5.00/bin/bin/../../lib/gcc/pic32m/13.2.1/libgcc.a(_lshrdi3.o)
 .reginfo       0x00000000       0x18 /opt/microchip/xc32/v5.00/bin/bin/../../lib/gcc/pic32m/13.2.1/libgcc.a(_ashldi3.o)
 .MIPS.abiflags
                0x00000000       0x18 /opt/microchip/xc32/v5.00/bin/bin/../../lib/gcc/pic32m/13.2.1/libgcc.a(_ashldi3.o)
 .pdr           0x00000000       0x20 /opt/microchip/xc32/v5.00/bin/bin/../../lib/gcc/pic32m/13.2.1/libgcc.a(_ashldi3.o)
 .xc_stack_usage
                0x00000000       0x17 /opt/microchip/xc32/v5.00/bin/bin/../../lib/gcc/pic32m/13.2.1/libgcc.a(_ashldi3.o)
 .xc_stack_usage.hdr
                0x00000000        0xe /opt/microchip/xc32/v5.00/bin/bin/../../lib/gcc/pic32m/13.2.1/libgcc.a(_ashldi3.o)
 .reginfo       0x00000000       0x18 /opt/microchip/xc32/v5.00/bin/bin/../../lib/gcc/pic32m/13.2.1/libgcc.a(_udivdi3.o)
 .MIPS.abiflags
                0x00000000       0x18 /opt/microchip/xc32/v5.00/bin/bin/../../lib/gcc/pic32m/13.2.1/libgcc.a(_udivdi3.o)
 .pdr           0x00000000       0x20 /opt/microchip/xc32/v5.00/bin/bin/../../lib/gcc/pic32m/13.2.1/libgcc.a(_udivdi3.o)
 .xc_stack_usage
                0x00000000       0x17 /opt/microchip/xc32/v5.00/bin/bin/../../lib/gcc/pic32m/13.2.1/libgcc.a(_udivdi3.o)
 .xc_stack_usage.hdr
                0x00000000        0xe /opt/microchip/xc32/v5.00/bin/bin/../../lib/gcc/pic32m/13.2.1/libgcc.a(_udivdi3.o)
 .reginfo       0x00000000       0x18 /opt/microchip/xc32/v5.00/bin/bin/../../lib/gcc/pic32m/13.2.1/libgcc.a(_umoddi3.o)
 .MIPS.abiflags
                0x00000000       0x18 /opt/microchip/xc32/v5.00/bin/bin/../../lib/gcc/pic32m/13.2.1/libgcc.a(_umoddi3.o)
 .pdr           0x00000000       0x20 /opt/microchip/xc32/v5.00/bin/bin/../../lib/gcc/pic32m/13.2.1/libgcc.a(_umoddi3.o)
 .xc_stack_usage
                0x00000000       0x17 /opt/microchip/xc32/v5.00/bin/bin/../../lib/gcc/pic32m/13.2.1/libgcc.a(_umoddi3.o)
 .xc_stack_usage.hdr
                0x00000000        0xe /opt/microchip/xc32/v5.00/bin/bin/../../lib/gcc/pic32m/13.2.1/libgcc.a(_umoddi3.o)
 .reginfo       0x00000000       0x18 /opt/microchip/xc32/v5.00/bin/bin/../../lib/gcc/pic32m/13.2.1/../../../../pic32m/lib/libpic32.a(pic32_data_init_clear.o)
 .MIPS.abiflags
                0x00000000       0x18 /opt/microchip/xc32/v5.00/bin/bin/../../lib/gcc/pic32m/13.2.1/../../../../pic32m/lib/libpic32.a(pic32_data_init_clear.o)
 .pdr           0x00000000       0x20 /opt/microchip/xc32/v5.00/bin/bin/../../lib/gcc/pic32m/13.2.1/../../../../pic32m/lib/libpic32.a(pic32_data_init_clear.o)
 .xc_stack_usage.hdr
                0x00000000        0xe /opt/microchip/xc32/v5.00/bin/bin/../../lib/gcc/pic32m/13.2.1/../../../../pic32m/lib/libpic32.a(pic32_data_init_clear.o)
 .xc_stack_usage
                0x00000000       0x1b /opt/microchip/xc32/v5.00/bin/bin/../../lib/gcc/pic32m/13.2.1/../../../../pic32m/lib/libpic32.a(pic32_data_init_clear.o)
 .reginfo       0x00000000       0x18 /opt/microchip/xc32/v5.00/bin/bin/../../lib/gcc/pic32m/13.2.1/../../../../pic32m/lib/libpic32.a(pic32_data_init_copy.o)
 .MIPS.abiflags
                0x00000000       0x18 /opt/microchip/xc32/v5.00/bin/bin/../../lib/gcc/pic32m/13.2.1/../../../../pic32m/lib/libpic32.a(pic32_data_init_copy.o)
 .pdr           0x00000000       0x20 /opt/microchip/xc32/v5.00/bin/bin/../../lib/gcc/pic32m/13.2.1/../../../../pic32m/lib/libpic32.a(pic32_data_init_copy.o)
 .xc_stack_usage.hdr
                0x00000000        0xe /opt/microchip/xc32/v5.00/bin/bin/../../lib/gcc/pic32m/13.2.1/../../../../pic32m/lib/libpic32.a(pic32_data_init_copy.o)
 .xc_stack_usage
                0x00000000       0x1a /opt/microchip/xc32/v5.00/bin/bin/../../lib/gcc/pic32m/13.2.1/../../../../pic32m/lib/libpic32.a(pic32_data_init_copy.o)

Memory Configuration

Name             Origin             Length             Attributes
kseg0_program_mem 0x9d000000         0x0003f000         xr
exception_mem    0x9d03f000         0x00001000
debug_exec_mem   0x9fc00490         0x00000760
kseg0_boot_mem   0x9fc00490         0x00000000
kseg1_boot_mem   0xbfc00000         0x00000490
config3          0xbfc00bf0         0x00000004
config2          0xbfc00bf4         0x00000004
config1          0xbfc00bf8         0x00000004
config0          0xbfc00bfc         0x00000004
kseg1_data_mem   0xa0000000         0x00010000         w!x
sfrs             0xbf800000         0x00100000
configsfrs       0xbfc00bf0         0x00000010
*default*        0x00000000         0xffffffff

Linker script and memory map

LOAD build/default/production/FrameworkSource/ES_CheckEvents.o
LOAD build/default/production/FrameworkSource/ES_DeferRecall.o
LOAD build/default/production/FrameworkSource/ES_Framework.o
LOAD build/default/production/FrameworkSource/ES_LookupTables.o
LOAD build/default/production/FrameworkSource/ES_Port.o
LOAD build/default/production/FrameworkSource/ES_PostList.o
LOAD build/default/production/FrameworkSource/ES_Queue.o
LOAD build/default/production/FrameworkSource/ES_Timers.o
LOAD build/default/production/FrameworkSource/terminal.o
LOAD build/default/production/FrameworkSource/circular_buffer_no_modulo_threadsafe.o
LOAD build/default/production/FrameworkSource/dbprintf.o
LOAD build/default/production/ProjectSource/EventCheckers.o
LOAD build/default/production/ProjectSource/TestHarnessService0.o
LOAD build/default/production/ProjectSource/main.o
LOAD build/default/production/ProjectSource/ADService.o
LOAD build/default/production/ProjectSource/PIC32_AD_Lib.o
LOAD build/default/production/ProjectSource/DCMotorService.o
LOAD build/default/production/ProjectSource/PIC32_SPI_HAL.o
LOAD build/default/production/ProjectSource/CommandRetrieveService.o
LOAD build/default/production/ProjectSource/MainLogicFSM.o
LOAD build/default/production/ProjectSource/Ports.o
LOAD build/default/production/ProjectSource/CommonDefinitions.o
                0x00000001                        __MPLAB_BUILD = 0x1
LOAD /tmp/cckmVf8F.o
LOAD /tmp/cc6UiQtu.o
LOAD /tmp/ccZ3wfy0.o
LOAD /opt/microchip/xc32/v5.00/bin/bin/../../lib/gcc/pic32m/13.2.1/../../../../pic32m/lib/debug-exception-return.o
LOAD /opt/microchip/xc32/v5.00/bin/bin/../../lib/gcc/pic32m/13.2.1/../../../../pic32m/lib/pic32_software_reset.o
LOAD /opt/microchip/xc32/v5.00/bin/bin/../../lib/gcc/pic32m/13.2.1/libgcc.a
START GROUP
LOAD /opt/microchip/xc32/v5.00/bin/bin/../../lib/gcc/pic32m/13.2.1/../../../../pic32m/lib/libpic32.a
LOAD /opt/microchip/xc32/v5.00/bin/bin/../../lib/gcc/pic32m/13.2.1/../../../../pic32m/lib/libc-size-musl.a
LOAD /opt/microchip/xc32/v5.00/bin/bin/../../lib/gcc/pic32m/13.2.1/../../../../pic32m/lib/liblmalloc-musl.a
LOAD /opt/microchip/xc32/v5.00/bin/bin/../../lib/gcc/pic32m/13.2.1/../../../../pic32m/lib/libdebug.a
LOAD /opt/microchip/xc32/v5.00/bin/bin/../../lib/gcc/pic32m/13.2.1/../../../../pic32m/lib/libc-musl.a
LOAD /opt/microchip/xc32/v5.00/bin/bin/../../lib/gcc/pic32m/13.2.1/../../../../pic32m/lib/libm.a
LOAD /opt/microchip/xc32/v5.00/bin/bin/../../lib/gcc/pic32m/13.2.1/../../../../pic32m/lib/libe.a
LOAD /opt/microchip/xc32/v5.00/bin/bin/../../lib/gcc/pic32m/13.2.1/../../../../pic32m/lib/libm-musl.a
LOAD /opt/microchip/xc32/v5.00/bin/bin/../../lib/gcc/pic32m/13.2.1/../../../../pic32m/lib/libdsp.a
END GROUP
LOAD /opt/microchip/xc32/v5.00/bin/bin/../../lib/gcc/pic32m/13.2.1/libgcc.a
                0x00000400                        PROVIDE (_min_stack_size = 0x400)
START GROUP
LOAD libmchp_peripheral.a
END GROUP
START GROUP
LOAD libmchp_peripheral_32MX170F256B.a
END GROUP
                0x00000001                        PROVIDE (_vector_spacing = 0x1)
                0x9d03f000                        PROVIDE (_ebase_address = 0x9d03f000)
                0xbfc00000                        _RESET_ADDR = 0xbfc00000
                0xbfc00380                        _BEV_EXCPT_ADDR = 0xbfc00380
                0xbfc00480                        _DBG_EXCPT_ADDR = 0xbfc00480
                0x9fc00490                        _DBG_CODE_ADDR = 0x9fc00490
                0x00000760                        _DBG_CODE_SIZE = 0x760
                0x9d03f180                        _GEN_EXCPT_ADDR = (_ebase_address + 0x180)

.config_BFC00BF0
                0xbfc00bf0        0x4
 *(.config_BFC00BF0)
 .config_BFC00BF0
                0xbfc00bf0        0x4 build/default/production/FrameworkSource/ES_Port.o
                0xbfc00bf0                __config_BFC00BF0

.config_BFC00BF4
                0xbfc00bf4        0x4
 *(.config_BFC00BF4)
 .config_BFC00BF4
                0xbfc00bf4        0x4 build/default/production/FrameworkSource/ES_Port.o
                0xbfc00bf4                __config_BFC00BF4

.config_BFC00BF8
                0xbfc00bf8        0x4
 *(.config_BFC00BF8)
 .config_BFC00BF8
                0xbfc00bf8        0x4 build/default/production/FrameworkSource/ES_Port.o
                0xbfc00bf8                __config_BFC00BF8

.config_BFC00BFC
                0xbfc00bfc        0x4
 *(.config_BFC00BFC)
 .config_BFC00BFC
                0xbfc00bfc        0x4 build/default/production/FrameworkSource/ES_Port.o
                0xbfc00bfc                __config_BFC00BFC

.reset          0xbfc00000      0x178
 *(.reset)
 .reset         0xbfc00000        0x8 /tmp/cckmVf8F.o
                0xbfc00000                _reset
 *(.reset.startup)
 .reset.startup
                0xbfc00008      0x170 /tmp/cckmVf8F.o
                0xbfc00008                _startup

.bev_excpt      0xbfc00380       0x10
 *(.bev_handler)
 .bev_handler   0xbfc00380       0x10 /tmp/cckmVf8F.o

.dbg_excpt      0xbfc00480        0x0
                0xbfc00480                        . = (. + DEFINED (_DEBUGGER)?0x8:0x0)

.dbg_code       0x9fc00490        0x0
                0x9fc00490                        . = (. + DEFINED (_DEBUGGER)?_DBG_CODE_SIZE:0x0)

.app_excpt      0x9d03f180       0x10
 *(.gen_handler)
 .gen_handler   0x9d03f180       0x10 /tmp/cckmVf8F.o

.vector_0       0x9d03f200        0x8
 *(.vector_0)
 .vector_0      0x9d03f200        0x8 build/default/production/FrameworkSource/ES_Port.o
                0x9d03f200                __vector_dispatch_0
                0x00000001                        ASSERT (((_vector_spacing == 0x0) || (SIZEOF (.vector_0) <= (_vector_spacing << 0x5))), function at exception vector 0 too large)

.vector_1       0x9d03f220        0x8
 *(.vector_1)
 .vector_1      0x9d03f220        0x8 /opt/microchip/xc32/v5.00/bin/bin/../../lib/gcc/pic32m/13.2.1/../../../../pic32m/lib/libpic32.a(vector1.o)
                0x9d03f220                __vector_dispatch_1
                0x00000001                        ASSERT (((_vector_spacing == 0x0) || (SIZEOF (.vector_1) <= (_vector_spacing << 0x5))), function at exception vector 1 too large)

.vector_2       0x9d03f240        0x8
 *(.vector_2)
 .vector_2      0x9d03f240        0x8 /opt/microchip/xc32/v5.00/bin/bin/../../lib/gcc/pic32m/13.2.1/../../../../pic32m/lib/libpic32.a(vector2.o)
                0x9d03f240                __vector_dispatch_2
                0x00000001                        ASSERT (((_vector_spacing == 0x0) || (SIZEOF (.vector_2) <= (_vector_spacing << 0x5))), function at exception vector 2 too large)

.vector_3       0x9d03f260        0x8
 *(.vector_3)
 .vector_3      0x9d03f260        0x8 /opt/microchip/xc32/v5.00/bin/bin/../../lib/gcc/pic32m/13.2.1/../../../../pic32m/lib/libpic32.a(vector3.o)
                0x9d03f260                __vector_dispatch_3
                0x00000001                        ASSERT (((_vector_spacing == 0x0) || (SIZEOF (.vector_3) <= (_vector_spacing << 0x5))), function at exception vector 3 too large)

.vector_4       0x9d03f280        0x8
 *(.vector_4)
 .vector_4      0x9d03f280        0x8 /opt/microchip/xc32/v5.00/bin/bin/../../lib/gcc/pic32m/13.2.1/../../../../pic32m/lib/libpic32.a(vector4.o)
                0x9d03f280                __vector_dispatch_4
                0x00000001                        ASSERT (((_vector_spacing == 0x0) || (SIZEOF (.vector_4) <= (_vector_spacing << 0x5))), function at exception vector 4 too large)

.vector_5       0x9d03f2a0        0x8
 *(.vector_5)
 .vector_5      0x9d03f2a0        0x8 /opt/microchip/xc32/v5.00/bin/bin/../../lib/gcc/pic32m/13.2.1/../../../../pic32m/lib/libpic32.a(vector5.o)
                0x9d03f2a0                __vector_dispatch_5
                0x00000001                        ASSERT (((_vector_spacing == 0x0) || (SIZEOF (.vector_5) <= (_vector_spacing << 0x5))), function at exception vector 5 too large)

.vector_6       0x9d03f2c0        0x8
 *(.vector_6)
 .vector_6      0x9d03f2c0        0x8 /opt/microchip/xc32/v5.00/bin/bin/../../lib/gcc/pic32m/13.2.1/../../../../pic32m/lib/libpic32.a(vector6.o)
                0x9d03f2c0                __vector_dispatch_6
                0x00000001                        ASSERT (((_vector_spacing == 0x0) || (SIZEOF (.vector_6) <= (_vector_spacing << 0x5))), function at exception vector 6 too large)

.vector_7       0x9d03f2e0        0x8
 *(.vector_7)
 .vector_7      0x9d03f2e0        0x8 /opt/microchip/xc32/v5.00/bin/bin/../../lib/gcc/pic32m/13.2.1/../../../../pic32m/lib/libpic32.a(vector7.o)
                0x9d03f2e0                __vector_dispatch_7
                0x00000001                        ASSERT (((_vector_spacing == 0x0) || (SIZEOF (.vector_7) <= (_vector_spacing << 0x5))), function at exception vector 7 too large)

.vector_8       0x9d03f300        0x8
 *(.vector_8)
 .vector_8      0x9d03f300        0x8 /opt/microchip/xc32/v5.00/bin/bin/../../lib/gcc/pic32m/13.2.1/../../../../pic32m/lib/libpic32.a(vector8.o)
                0x9d03f300                __vector_dispatch_8
                0x00000001                        ASSERT (((_vector_spacing == 0x0) || (SIZEOF (.vector_8) <= (_vector_spacing << 0x5))), function at exception vector 8 too large)

.vector_9       0x9d03f320        0x8
 *(.vector_9)
 .vector_9      0x9d03f320        0x8 /opt/microchip/xc32/v5.00/bin/bin/../../lib/gcc/pic32m/13.2.1/../../../../pic32m/lib/libpic32.a(vector9.o)
                0x9d03f320                __vector_dispatch_9
                0x00000001                        ASSERT (((_vector_spacing == 0x0) || (SIZEOF (.vector_9) <= (_vector_spacing << 0x5))), function at exception vector 9 too large)

.vector_10      0x9d03f340        0x8
 *(.vector_10)
 .vector_10     0x9d03f340        0x8 /opt/microchip/xc32/v5.00/bin/bin/../../lib/gcc/pic32m/13.2.1/../../../../pic32m/lib/libpic32.a(vector10.o)
                0x9d03f340                __vector_dispatch_10
                0x00000001                        ASSERT (((_vector_spacing == 0x0) || (SIZEOF (.vector_10) <= (_vector_spacing << 0x5))), function at exception vector 10 too large)

.vector_11      0x9d03f360        0x8
 *(.vector_11)
 .vector_11     0x9d03f360        0x8 /opt/microchip/xc32/v5.00/bin/bin/../../lib/gcc/pic32m/13.2.1/../../../../pic32m/lib/libpic32.a(vector11.o)
                0x9d03f360                __vector_dispatch_11
                0x00000001                        ASSERT (((_vector_spacing == 0x0) || (SIZEOF (.vector_11) <= (_vector_spacing << 0x5))), function at exception vector 11 too large)

.vector_12      0x9d03f380        0x8
 *(.vector_12)
 .vector_12     0x9d03f380        0x8 /opt/microchip/xc32/v5.00/bin/bin/../../lib/gcc/pic32m/13.2.1/../../../../pic32m/lib/libpic32.a(vector12.o)
                0x9d03f380                __vector_dispatch_12
                0x00000001                        ASSERT (((_vector_spacing == 0x0) || (SIZEOF (.vector_12) <= (_vector_spacing << 0x5))), function at exception vector 12 too large)

.vector_13      0x9d03f3a0        0x8
 *(.vector_13)
 .vector_13     0x9d03f3a0        0x8 /opt/microchip/xc32/v5.00/bin/bin/../../lib/gcc/pic32m/13.2.1/../../../../pic32m/lib/libpic32.a(vector13.o)
                0x9d03f3a0                __vector_dispatch_13
                0x00000001                        ASSERT (((_vector_spacing == 0x0) || (SIZEOF (.vector_13) <= (_vector_spacing << 0x5))), function at exception vector 13 too large)

.vector_14      0x9d03f3c0        0x8
 *(.vector_14)
 .vector_14     0x9d03f3c0        0x8 /opt/microchip/xc32/v5.00/bin/bin/../../lib/gcc/pic32m/13.2.1/../../../../pic32m/lib/libpic32.a(vector14.o)
                0x9d03f3c0                __vector_dispatch_14
                0x00000001                        ASSERT (((_vector_spacing == 0x0) || (SIZEOF (.vector_14) <= (_vector_spacing << 0x5))), function at exception vector 14 too large)

.vector_15      0x9d03f3e0        0x8
 *(.vector_15)
 .vector_15     0x9d03f3e0        0x8 /opt/microchip/xc32/v5.00/bin/bin/../../lib/gcc/pic32m/13.2.1/../../../../pic32m/lib/libpic32.a(vector15.o)
                0x9d03f3e0                __vector_dispatch_15
                0x00000001                        ASSERT (((_vector_spacing == 0x0) || (SIZEOF (.vector_15) <= (_vector_spacing << 0x5))), function at exception vector 15 too large)

.vector_16      0x9d03f400        0x8
 *(.vector_16)
 .vector_16     0x9d03f400        0x8 /opt/microchip/xc32/v5.00/bin/bin/../../lib/gcc/pic32m/13.2.1/../../../../pic32m/lib/libpic32.a(vector16.o)
                0x9d03f400                __vector_dispatch_16
                0x00000001                        ASSERT (((_vector_spacing == 0x0) || (SIZEOF (.vector_16) <= (_vector_spacing << 0x5))), function at exception vector 16 too large)

.vector_17      0x9d03f420        0x8
 *(.vector_17)
 .vector_17     0x9d03f420        0x8 /opt/microchip/xc32/v5.00/bin/bin/../../lib/gcc/pic32m/13.2.1/../../../../pic32m/lib/libpic32.a(vector17.o)
                0x9d03f420                __vector_dispatch_17
                0x00000001                        ASSERT (((_vector_spacing == 0x0) || (SIZEOF (.vector_17) <= (_vector_spacing << 0x5))), function at exception vector 17 too large)

.vector_18      0x9d03f440        0x8
 *(.vector_18)
 .vector_18     0x9d03f440        0x8 /opt/microchip/xc32/v5.00/bin/bin/../../lib/gcc/pic32m/13.2.1/../../../../pic32m/lib/libpic32.a(vector18.o)
                0x9d03f440                __vector_dispatch_18
                0x00000001                        ASSERT (((_vector_spacing == 0x0) || (SIZEOF (.vector_18) <= (_vector_spacing << 0x5))), function at exception vector 18 too large)

.vector_19      0x9d03f460        0x8
 *(.vector_19)
 .vector_19     0x9d03f460        0x8 /opt/microchip/xc32/v5.00/bin/bin/../../lib/gcc/pic32m/13.2.1/../../../../pic32m/lib/libpic32.a(vector19.o)
                0x9d03f460                __vector_dispatch_19
                0x00000001                        ASSERT (((_vector_spacing == 0x0) || (SIZEOF (.vector_19) <= (_vector_spacing << 0x5))), function at exception vector 19 too large)

.vector_20      0x9d03f480        0x8
 *(.vector_20)
 .vector_20     0x9d03f480        0x8 /opt/microchip/xc32/v5.00/bin/bin/../../lib/gcc/pic32m/13.2.1/../../../../pic32m/lib/libpic32.a(vector20.o)
                0x9d03f480                __vector_dispatch_20
                0x00000001                        ASSERT (((_vector_spacing == 0x0) || (SIZEOF (.vector_20) <= (_vector_spacing << 0x5))), function at exception vector 20 too large)

.vector_21      0x9d03f4a0        0x8
 *(.vector_21)
 .vector_21     0x9d03f4a0        0x8 /opt/microchip/xc32/v5.00/bin/bin/../../lib/gcc/pic32m/13.2.1/../../../../pic32m/lib/libpic32.a(vector21.o)
                0x9d03f4a0                __vector_dispatch_21
                0x00000001                        ASSERT (((_vector_spacing == 0x0) || (SIZEOF (.vector_21) <= (_vector_spacing << 0x5))), function at exception vector 21 too large)

.vector_22      0x9d03f4c0        0x8
 *(.vector_22)
 .vector_22     0x9d03f4c0        0x8 /opt/microchip/xc32/v5.00/bin/bin/../../lib/gcc/pic32m/13.2.1/../../../../pic32m/lib/libpic32.a(vector22.o)
                0x9d03f4c0                __vector_dispatch_22
                0x00000001                        ASSERT (((_vector_spacing == 0x0) || (SIZEOF (.vector_22) <= (_vector_spacing << 0x5))), function at exception vector 22 too large)

.vector_23      0x9d03f4e0        0x8
 *(.vector_23)
 .vector_23     0x9d03f4e0        0x8 /opt/microchip/xc32/v5.00/bin/bin/../../lib/gcc/pic32m/13.2.1/../../../../pic32m/lib/libpic32.a(vector23.o)
                0x9d03f4e0                __vector_dispatch_23
                0x00000001                        ASSERT (((_vector_spacing == 0x0) || (SIZEOF (.vector_23) <= (_vector_spacing << 0x5))), function at exception vector 23 too large)

.vector_24      0x9d03f500        0x8
 *(.vector_24)
 .vector_24     0x9d03f500        0x8 /opt/microchip/xc32/v5.00/bin/bin/../../lib/gcc/pic32m/13.2.1/../../../../pic32m/lib/libpic32.a(vector24.o)
                0x9d03f500                __vector_dispatch_24
                0x00000001                        ASSERT (((_vector_spacing == 0x0) || (SIZEOF (.vector_24) <= (_vector_spacing << 0x5))), function at exception vector 24 too large)

.vector_25      0x9d03f520        0x8
 *(.vector_25)
 .vector_25     0x9d03f520        0x8 /opt/microchip/xc32/v5.00/bin/bin/../../lib/gcc/pic32m/13.2.1/../../../../pic32m/lib/libpic32.a(vector25.o)
                0x9d03f520                __vector_dispatch_25
                0x00000001                        ASSERT (((_vector_spacing == 0x0) || (SIZEOF (.vector_25) <= (_vector_spacing << 0x5))), function at exception vector 25 too large)

.vector_26      0x9d03f540        0x8
 *(.vector_26)
 .vector_26     0x9d03f540        0x8 /opt/microchip/xc32/v5.00/bin/bin/../../lib/gcc/pic32m/13.2.1/../../../../pic32m/lib/libpic32.a(vector26.o)
                0x9d03f540                __vector_dispatch_26
                0x00000001                        ASSERT (((_vector_spacing == 0x0) || (SIZEOF (.vector_26) <= (_vector_spacing << 0x5))), function at exception vector 26 too large)

.vector_27      0x9d03f560        0x8
 *(.vector_27)
 .vector_27     0x9d03f560        0x8 /opt/microchip/xc32/v5.00/bin/bin/../../lib/gcc/pic32m/13.2.1/../../../../pic32m/lib/libpic32.a(vector27.o)
                0x9d03f560                __vector_dispatch_27
                0x00000001                        ASSERT (((_vector_spacing == 0x0) || (SIZEOF (.vector_27) <= (_vector_spacing << 0x5))), function at exception vector 27 too large)

.vector_28      0x9d03f580        0x8
 *(.vector_28)
 .vector_28     0x9d03f580        0x8 /opt/microchip/xc32/v5.00/bin/bin/../../lib/gcc/pic32m/13.2.1/../../../../pic32m/lib/libpic32.a(vector28.o)
                0x9d03f580                __vector_dispatch_28
                0x00000001                        ASSERT (((_vector_spacing == 0x0) || (SIZEOF (.vector_28) <= (_vector_spacing << 0x5))), function at exception vector 28 too large)

.vector_29      0x9d03f5a0        0x8
 *(.vector_29)
 .vector_29     0x9d03f5a0        0x8 /opt/microchip/xc32/v5.00/bin/bin/../../lib/gcc/pic32m/13.2.1/../../../../pic32m/lib/libpic32.a(vector29.o)
                0x9d03f5a0                __vector_dispatch_29
                0x00000001                        ASSERT (((_vector_spacing == 0x0) || (SIZEOF (.vector_29) <= (_vector_spacing << 0x5))), function at exception vector 29 too large)

.vector_30      0x9d03f5c0        0x8
 *(.vector_30)
 .vector_30     0x9d03f5c0        0x8 /opt/microchip/xc32/v5.00/bin/bin/../../lib/gcc/pic32m/13.2.1/../../../../pic32m/lib/libpic32.a(vector30.o)
                0x9d03f5c0                __vector_dispatch_30
                0x00000001                        ASSERT (((_vector_spacing == 0x0) || (SIZEOF (.vector_30) <= (_vector_spacing << 0x5))), function at exception vector 30 too large)

.vector_31      0x9d03f5e0        0x8
 *(.vector_31)
 .vector_31     0x9d03f5e0        0x8 /opt/microchip/xc32/v5.00/bin/bin/../../lib/gcc/pic32m/13.2.1/../../../../pic32m/lib/libpic32.a(vector31.o)
                0x9d03f5e0                __vector_dispatch_31
                0x00000001                        ASSERT (((_vector_spacing == 0x0) || (SIZEOF (.vector_31) <= (_vector_spacing << 0x5))), function at exception vector 31 too large)

.vector_32      0x9d03f600        0x8
 *(.vector_32)
 .vector_32     0x9d03f600        0x8 /opt/microchip/xc32/v5.00/bin/bin/../../lib/gcc/pic32m/13.2.1/../../../../pic32m/lib/libpic32.a(vector32.o)
                0x9d03f600                __vector_dispatch_32
                0x00000001                        ASSERT (((_vector_spacing == 0x0) || (SIZEOF (.vector_32) <= (_vector_spacing << 0x5))), function at exception vector 32 too large)

.vector_33      0x9d03f620        0x8
 *(.vector_33)
 .vector_33     0x9d03f620        0x8 /opt/microchip/xc32/v5.00/bin/bin/../../lib/gcc/pic32m/13.2.1/../../../../pic32m/lib/libpic32.a(vector33.o)
                0x9d03f620                __vector_dispatch_33
                0x00000001                        ASSERT (((_vector_spacing == 0x0) || (SIZEOF (.vector_33) <= (_vector_spacing << 0x5))), function at exception vector 33 too large)

.vector_34      0x9d03f640        0x8
 *(.vector_34)
 .vector_34     0x9d03f640        0x8 /opt/microchip/xc32/v5.00/bin/bin/../../lib/gcc/pic32m/13.2.1/../../../../pic32m/lib/libpic32.a(vector34.o)
                0x9d03f640                __vector_dispatch_34
                0x00000001                        ASSERT (((_vector_spacing == 0x0) || (SIZEOF (.vector_34) <= (_vector_spacing << 0x5))), function at exception vector 34 too large)

.vector_35      0x9d03f660        0x8
 *(.vector_35)
 .vector_35     0x9d03f660        0x8 /opt/microchip/xc32/v5.00/bin/bin/../../lib/gcc/pic32m/13.2.1/../../../../pic32m/lib/libpic32.a(vector35.o)
                0x9d03f660                __vector_dispatch_35
                0x00000001                        ASSERT (((_vector_spacing == 0x0) || (SIZEOF (.vector_35) <= (_vector_spacing << 0x5))), function at exception vector 35 too large)

.vector_36      0x9d03f680        0x8
 *(.vector_36)
 .vector_36     0x9d03f680        0x8 /opt/microchip/xc32/v5.00/bin/bin/../../lib/gcc/pic32m/13.2.1/../../../../pic32m/lib/libpic32.a(vector36.o)
                0x9d03f680                __vector_dispatch_36
                0x00000001                        ASSERT (((_vector_spacing == 0x0) || (SIZEOF (.vector_36) <= (_vector_spacing << 0x5))), function at exception vector 36 too large)

.vector_37      0x9d03f6a0        0x8
 *(.vector_37)
 .vector_37     0x9d03f6a0        0x8 /opt/microchip/xc32/v5.00/bin/bin/../../lib/gcc/pic32m/13.2.1/../../../../pic32m/lib/libpic32.a(vector37.o)
                0x9d03f6a0                __vector_dispatch_37
                0x00000001                        ASSERT (((_vector_spacing == 0x0) || (SIZEOF (.vector_37) <= (_vector_spacing << 0x5))), function at exception vector 37 too large)

.vector_38      0x9d03f6c0        0x8
 *(.vector_38)
 .vector_38     0x9d03f6c0        0x8 /opt/microchip/xc32/v5.00/bin/bin/../../lib/gcc/pic32m/13.2.1/../../../../pic32m/lib/libpic32.a(vector38.o)
                0x9d03f6c0                __vector_dispatch_38
                0x00000001                        ASSERT (((_vector_spacing == 0x0) || (SIZEOF (.vector_38) <= (_vector_spacing << 0x5))), function at exception vector 38 too large)

.vector_39      0x9d03f6e0        0x8
 *(.vector_39)
 .vector_39     0x9d03f6e0        0x8 /opt/microchip/xc32/v5.00/bin/bin/../../lib/gcc/pic32m/13.2.1/../../../../pic32m/lib/libpic32.a(vector39.o)
                0x9d03f6e0                __vector_dispatch_39
                0x00000001                        ASSERT (((_vector_spacing == 0x0) || (SIZEOF (.vector_39) <= (_vector_spacing << 0x5))), function at exception vector 39 too large)

.vector_40      0x9d03f700        0x8
 *(.vector_40)
 .vector_40     0x9d03f700        0x8 /opt/microchip/xc32/v5.00/bin/bin/../../lib/gcc/pic32m/13.2.1/../../../../pic32m/lib/libpic32.a(vector40.o)
                0x9d03f700                __vector_dispatch_40
                0x00000001                        ASSERT (((_vector_spacing == 0x0) || (SIZEOF (.vector_40) <= (_vector_spacing << 0x5))), function at exception vector 40 too large)

.vector_41      0x9d03f720        0x8
 *(.vector_41)
 .vector_41     0x9d03f720        0x8 /opt/microchip/xc32/v5.00/bin/bin/../../lib/gcc/pic32m/13.2.1/../../../../pic32m/lib/libpic32.a(vector41.o)
                0x9d03f720                __vector_dispatch_41
                0x00000001                        ASSERT (((_vector_spacing == 0x0) || (SIZEOF (.vector_41) <= (_vector_spacing << 0x5))), function at exception vector 41 too large)

.vector_42      0x9d03f740        0x8
 *(.vector_42)
 .vector_42     0x9d03f740        0x8 /opt/microchip/xc32/v5.00/bin/bin/../../lib/gcc/pic32m/13.2.1/../../../../pic32m/lib/libpic32.a(vector42.o)
                0x9d03f740                __vector_dispatch_42
                0x00000001                        ASSERT (((_vector_spacing == 0x0) || (SIZEOF (.vector_42) <= (_vector_spacing << 0x5))), function at exception vector 42 too large)

.vector_43      0x9d03f760        0x8
 *(.vector_43)
 .vector_43     0x9d03f760        0x8 /opt/microchip/xc32/v5.00/bin/bin/../../lib/gcc/pic32m/13.2.1/../../../../pic32m/lib/libpic32.a(vector43.o)
                0x9d03f760                __vector_dispatch_43
                0x00000001                        ASSERT (((_vector_spacing == 0x0) || (SIZEOF (.vector_43) <= (_vector_spacing << 0x5))), function at exception vector 43 too large)

.vector_44
 *(.vector_44)
                0x00000001                        ASSERT (((_vector_spacing == 0x0) || (SIZEOF (.vector_44) <= (_vector_spacing << 0x5))), function at exception vector 44 too large)

.vector_45
 *(.vector_45)
                0x00000001                        ASSERT (((_vector_spacing == 0x0) || (SIZEOF (.vector_45) <= (_vector_spacing << 0x5))), function at exception vector 45 too large)

.vector_46
 *(.vector_46)
                0x00000001                        ASSERT (((_vector_spacing == 0x0) || (SIZEOF (.vector_46) <= (_vector_spacing << 0x5))), function at exception vector 46 too large)

.vector_47
 *(.vector_47)
                0x00000001                        ASSERT (((_vector_spacing == 0x0) || (SIZEOF (.vector_47) <= (_vector_spacing << 0x5))), function at exception vector 47 too large)

.vector_48
 *(.vector_48)
                0x00000001                        ASSERT (((_vector_spacing == 0x0) || (SIZEOF (.vector_48) <= (_vector_spacing << 0x5))), function at exception vector 48 too large)

.vector_49
 *(.vector_49)
                0x00000001                        ASSERT (((_vector_spacing == 0x0) || (SIZEOF (.vector_49) <= (_vector_spacing << 0x5))), function at exception vector 49 too large)

.vector_50
 *(.vector_50)
                0x00000001                        ASSERT (((_vector_spacing == 0x0) || (SIZEOF (.vector_50) <= (_vector_spacing << 0x5))), function at exception vector 50 too large)

.vector_51
 *(.vector_51)
                0x00000001                        ASSERT (((_vector_spacing == 0x0) || (SIZEOF (.vector_51) <= (_vector_spacing << 0x5))), function at exception vector 51 too large)

.vector_52
 *(.vector_52)
                0x00000001                        ASSERT (((_vector_spacing == 0x0) || (SIZEOF (.vector_52) <= (_vector_spacing << 0x5))), function at exception vector 52 too large)

.vector_53
 *(.vector_53)
                0x00000001                        ASSERT (((_vector_spacing == 0x0) || (SIZEOF (.vector_53) <= (_vector_spacing << 0x5))), function at exception vector 53 too large)

.vector_54
 *(.vector_54)
                0x00000001                        ASSERT (((_vector_spacing == 0x0) || (SIZEOF (.vector_54) <= (_vector_spacing << 0x5))), function at exception vector 54 too large)

.vector_55
 *(.vector_55)
                0x00000001                        ASSERT (((_vector_spacing == 0x0) || (SIZEOF (.vector_55) <= (_vector_spacing << 0x5))), function at exception vector 55 too large)

.vector_56
 *(.vector_56)
                0x00000001                        ASSERT (((_vector_spacing == 0x0) || (SIZEOF (.vector_56) <= (_vector_spacing << 0x5))), function at exception vector 56 too large)

.vector_57
 *(.vector_57)
                0x00000001                        ASSERT (((_vector_spacing == 0x0) || (SIZEOF (.vector_57) <= (_vector_spacing << 0x5))), function at exception vector 57 too large)

.vector_58
 *(.vector_58)
                0x00000001                        ASSERT (((_vector_spacing == 0x0) || (SIZEOF (.vector_58) <= (_vector_spacing << 0x5))), function at exception vector 58 too large)

.vector_59
 *(.vector_59)
                0x00000001                        ASSERT (((_vector_spacing == 0x0) || (SIZEOF (.vector_59) <= (_vector_spacing << 0x5))), function at exception vector 59 too large)

.vector_60
 *(.vector_60)
                0x00000001                        ASSERT (((_vector_spacing == 0x0) || (SIZEOF (.vector_60) <= (_vector_spacing << 0x5))), function at exception vector 60 too large)

.vector_61
 *(.vector_61)
                0x00000001                        ASSERT (((_vector_spacing == 0x0) || (SIZEOF (.vector_61) <= (_vector_spacing << 0x5))), function at exception vector 61 too large)

.vector_62
 *(.vector_62)
                0x00000001                        ASSERT (((_vector_spacing == 0x0) || (SIZEOF (.vector_62) <= (_vector_spacing << 0x5))), function at exception vector 62 too large)

.vector_63
 *(.vector_63)
                0x00000001                        ASSERT (((_vector_spacing == 0x0) || (SIZEOF (.vector_63) <= (_vector_spacing << 0x5))), function at exception vector 63 too large)

.startup
 *(.startup)

.text           0x9d000000        0x0
 *(.stub .gnu.linkonce.t.*)
 *(.text.*personality*)
 *(.mips16.fn.*)
 *(.mips16.call.*)
 *(.gnu.warning)
                0x9d000000                        . = ALIGN (0x4)

.init           0x9d000000        0x0
 *crti.o(.init)
 *crtbegin.o(.init)
 *(EXCLUDE_FILE(*crtn.o *crtend?.o *crtend.o) .init)
 *crtend.o(.init)
 *crtn.o(.init)
                0x9d000000                        . = ALIGN (0x4)

.fini           0x9d000000        0x0
 *(.fini)
                0x9d000000                        . = ALIGN (0x4)

.preinit_array  0x9d000000        0x0
                [!provide]                        PROVIDE (__preinit_array_start = .)
 *(.preinit_array)
                [!provide]                        PROVIDE (__preinit_array_end = .)
                0x9d000000                        . = ALIGN (0x4)

.init_array     0x9d000000        0x0
                [!provide]                        PROVIDE (__init_array_start = .)
 *(SORT_BY_NAME(.init_array.*))
 *(.init_array)
                [!provide]                        PROVIDE (__init_array_end = .)
                0x9d000000                        . = ALIGN (0x4)

.fini_array     0x9d000000        0x0
                [!provide]                        PROVIDE (__fini_array_start = .)
 *(SORT_BY_NAME(.fini_array.*))
 *(.fini_array)
                [!provide]                        PROVIDE (__fini_array_end = .)
                0x9d000000                        . = ALIGN (0x4)

.ctors          0x9d000000        0x0
 *crtbegin.o(.ctors)
 *crtbegin?.o(.ctors)
 *(EXCLUDE_FILE(*crtend?.o *crtend.o) .ctors)
 *(SORT_BY_NAME(.ctors.*))
 *(.ctors)
                0x9d000000                        . = ALIGN (0x4)

.dtors          0x9d000000        0x0
 *crtbegin.o(.dtors)
 *crtbegin?.o(.dtors)
 *(EXCLUDE_FILE(*crtend?.o *crtend.o) .dtors)
 *(SORT_BY_NAME(.dtors.*))
 *(.dtors)
                0x9d000000                        . = ALIGN (0x4)

.rodata         0x9d000000        0x0
 *(.gnu.linkonce.r.*)
 *(.rodata1)
                0x9d000000                        . = ALIGN (0x4)

.sdata2         0x9d000000        0x0
 *(.sdata2 .sdata2.* .gnu.linkonce.s2.*)
                0x9d000000                        . = ALIGN (0x4)

.sbss2          0x9d000000        0x0
 *(.sbss2 .sbss2.* .gnu.linkonce.sb2.*)
                0x9d000000                        . = ALIGN (0x4)

.eh_frame_hdr
 *(.eh_frame_hdr)
                0x9d000000                        . = ALIGN (0x4)

.eh_frame
 *(.eh_frame)
                0x9d000000                        . = ALIGN (0x4)

.gcc_except_table
 *(.gcc_except_table .gcc_except_table.*)
                0x9d000000                        . = ALIGN (0x4)

.dbg_data       0xa0000000        0x0
                0xa0000000                        . = (. + DEFINED (_DEBUGGER)?0x200:0x0)

.jcr            0xa0000000        0x0
 *(.jcr)
                0xa0000000                        . = ALIGN (0x4)

.eh_frame
 *(.eh_frame)
                0xa0000000                        . = ALIGN (0x4)

.gcc_except_table
 *(.gcc_except_table .gcc_except_table.*)
                0xa0000000                        . = ALIGN (0x4)

.persist        0xa0000000        0x0
                0xa0000000                        _persist_begin = .
 *(.persist .persist.*)
                0xa0000000                        . = ALIGN (0x4)
                0xa0000000                        _persist_end = .

.data           0xa0000000        0x0
 *(.gnu.linkonce.d.*)
 *(.data1)
                0xa0000000                        . = ALIGN (0x4)
                0xa0000000                        . = .
                0xa0007ff0                        _gp = (ALIGN (0x10) + 0x7ff0)

.got            0xa0000000        0x0
 *(.got.plt)
 *(.got)
                0xa0000000                        . = ALIGN (0x4)

.sdata          0xa0000000        0x8
                0xa0000000                        _sdata_begin = .
 *(.sdata .sdata.* .gnu.linkonce.s.*)
 .sdata         0xa0000000        0x1 build/default/production/ProjectSource/EventCheckers.o
 *fill*         0xa0000001        0x3 
 .sdata         0xa0000004        0x4 /opt/microchip/xc32/v5.00/bin/bin/../../lib/gcc/pic32m/13.2.1/../../../../pic32m/lib/libpic32.a(xc32_uart.o)
                0xa0000004                __XC_UART
                0xa0000008                        . = ALIGN (0x4)
                0xa0000008                        _sdata_end = .

.lit8
 *(.lit8)

.lit4
 *(.lit4)
                0xa0000008                        . = ALIGN (0x4)
                0xa0000008                        _data_end = .
                0xa0000008                        _bss_begin = .

.sbss           0xa0000008       0x70
                0xa0000008                        _sbss_begin = .
 *(.dynsbss)
 *(.sbss .sbss.* .gnu.linkonce.sb.*)
 .sbss          0xa0000008        0xc build/default/production/FrameworkSource/ES_Framework.o
                0xa0000008                Ready
 .sbss          0xa0000014        0xd build/default/production/FrameworkSource/ES_Port.o
 *fill*         0xa0000021        0x3 
 .sbss          0xa0000024       0x10 build/default/production/FrameworkSource/ES_Timers.o
 .sbss          0xa0000034        0x4 build/default/production/FrameworkSource/terminal.o
 .sbss          0xa0000038        0x1 build/default/production/FrameworkSource/circular_buffer_no_modulo_threadsafe.o
                0xa0000038                numBuffersAllocated
 .sbss          0xa0000039        0x1 build/default/production/ProjectSource/EventCheckers.o
 .sbss          0xa000003a        0x1 build/default/production/ProjectSource/TestHarnessService0.o
 *fill*         0xa000003b        0x1 
 .sbss          0xa000003c        0xc build/default/production/ProjectSource/ADService.o
 .sbss          0xa0000048        0x1 build/default/production/ProjectSource/PIC32_AD_Lib.o
 *fill*         0xa0000049        0x3 
 .sbss          0xa000004c        0xa build/default/production/ProjectSource/DCMotorService.o
 *fill*         0xa0000056        0x2 
 .sbss          0xa0000058       0x10 build/default/production/ProjectSource/PIC32_SPI_HAL.o
 .sbss          0xa0000068        0x7 build/default/production/ProjectSource/CommandRetrieveService.o
                0xa0000068                Module
 *fill*         0xa000006f        0x1 
 .sbss          0xa0000070        0x5 build/default/production/ProjectSource/MainLogicFSM.o
 *(.scommon)
                0xa0000075                        _sbss_end = .
                0xa0000078                        . = ALIGN (0x4)
 *fill*         0xa0000075        0x3 

.bss            0xa0000078        0x0
 *(.dynbss)
 *(COMMON)
                0xa0000078                        . = ALIGN ((. != 0x0)?0x4:0x1)
                0xa0000078                        . = ALIGN (0x4)
                0xa0000078                        _end = .
                0xa0000078                        _bss_end = .
                0x00010000                        _bmxdudba_address = LENGTH (kseg1_data_mem)
                0x00010000                        _bmxdupba_address = LENGTH (kseg1_data_mem)

/DISCARD/
 *(.pdr)

.gptab.sdata
 *(.gptab.data)
 *(.gptab.sdata)

.gptab.sbss
 *(.gptab.bss)
 *(.gptab.sbss)

.mdebug.abi32   0x00000000        0x0
 *(.mdebug.abi32)
 .mdebug.abi32  0x00000000        0x0 build/default/production/FrameworkSource/ES_CheckEvents.o
 .mdebug.abi32  0x00000000        0x0 build/default/production/FrameworkSource/ES_DeferRecall.o
 .mdebug.abi32  0x00000000        0x0 build/default/production/FrameworkSource/ES_Framework.o
 .mdebug.abi32  0x00000000        0x0 build/default/production/FrameworkSource/ES_LookupTables.o
 .mdebug.abi32  0x00000000        0x0 build/default/production/FrameworkSource/ES_Port.o
 .mdebug.abi32  0x00000000        0x0 build/default/production/FrameworkSource/ES_PostList.o
 .mdebug.abi32  0x00000000        0x0 build/default/production/FrameworkSource/ES_Queue.o
 .mdebug.abi32  0x00000000        0x0 build/default/production/FrameworkSource/ES_Timers.o
 .mdebug.abi32  0x00000000        0x0 build/default/production/FrameworkSource/terminal.o
 .mdebug.abi32  0x00000000        0x0 build/default/production/FrameworkSource/circular_buffer_no_modulo_threadsafe.o
 .mdebug.abi32  0x00000000        0x0 build/default/production/FrameworkSource/dbprintf.o
 .mdebug.abi32  0x00000000        0x0 build/default/production/ProjectSource/EventCheckers.o
 .mdebug.abi32  0x00000000        0x0 build/default/production/ProjectSource/TestHarnessService0.o
 .mdebug.abi32  0x00000000        0x0 build/default/production/ProjectSource/main.o
 .mdebug.abi32  0x00000000        0x0 build/default/production/ProjectSource/ADService.o
 .mdebug.abi32  0x00000000        0x0 build/default/production/ProjectSource/PIC32_AD_Lib.o
 .mdebug.abi32  0x00000000        0x0 build/default/production/ProjectSource/DCMotorService.o
 .mdebug.abi32  0x00000000        0x0 build/default/production/ProjectSource/PIC32_SPI_HAL.o
 .mdebug.abi32  0x00000000        0x0 build/default/production/ProjectSource/CommandRetrieveService.o
 .mdebug.abi32  0x00000000        0x0 build/default/production/ProjectSource/MainLogicFSM.o
 .mdebug.abi32  0x00000000        0x0 build/default/production/ProjectSource/Ports.o
 .mdebug.abi32  0x00000000        0x0 build/default/production/ProjectSource/CommonDefinitions.o
 .mdebug.abi32  0x00000000        0x0 /opt/microchip/xc32/v5.00/bin/bin/../../lib/gcc/pic32m/13.2.1/libgcc.a(floatunsisf.o)
 .mdebug.abi32  0x00000000        0x0 /opt/microchip/xc32/v5.00/bin/bin/../../lib/gcc/pic32m/13.2.1/../../../../pic32m/lib/libpic32.a(default-bootstrap-exception-handler.o)
 .mdebug.abi32  0x00000000        0x0 /opt/microchip/xc32/v5.00/bin/bin/../../lib/gcc/pic32m/13.2.1/../../../../pic32m/lib/libpic32.a(default-on-reset.o)
 .mdebug.abi32  0x00000000        0x0 /opt/microchip/xc32/v5.00/bin/bin/../../lib/gcc/pic32m/13.2.1/../../../../pic32m/lib/libpic32.a(default-on-bootstrap.o)
 .mdebug.abi32  0x00000000        0x0 /opt/microchip/xc32/v5.00/bin/bin/../../lib/gcc/pic32m/13.2.1/../../../../pic32m/lib/libpic32.a(xc32_uart.o)
 .mdebug.abi32  0x00000000        0x0 /opt/microchip/xc32/v5.00/bin/bin/../../lib/gcc/pic32m/13.2.1/../../../../pic32m/lib/libpic32.a(default-general-exception-handler.o)
 .mdebug.abi32  0x00000000        0x0 /opt/microchip/xc32/v5.00/bin/bin/../../lib/gcc/pic32m/13.2.1/../../../../pic32m/lib/libpic32.a(defaultinterrupt.o)
 .mdebug.abi32  0x00000000        0x0 /opt/microchip/xc32/v5.00/bin/bin/../../lib/gcc/pic32m/13.2.1/../../../../pic32m/lib/libc-musl.a(assert.o)
 .mdebug.abi32  0x00000000        0x0 /opt/microchip/xc32/v5.00/bin/bin/../../lib/gcc/pic32m/13.2.1/../../../../pic32m/lib/libc-musl.a(abort.o)
 .mdebug.abi32  0x00000000        0x0 /opt/microchip/xc32/v5.00/bin/bin/../../lib/gcc/pic32m/13.2.1/../../../../pic32m/lib/libc-musl.a(fprintf.o)
 .mdebug.abi32  0x00000000        0x0 /opt/microchip/xc32/v5.00/bin/bin/../../lib/gcc/pic32m/13.2.1/../../../../pic32m/lib/libc-musl.a(fflush.o)
 .mdebug.abi32  0x00000000        0x0 /opt/microchip/xc32/v5.00/bin/bin/../../lib/gcc/pic32m/13.2.1/../../../../pic32m/lib/libc-musl.a(vfprintf.o)
 .mdebug.abi32  0x00000000        0x0 /opt/microchip/xc32/v5.00/bin/bin/../../lib/gcc/pic32m/13.2.1/../../../../pic32m/lib/libc-musl.a(stderr.o)
 .mdebug.abi32  0x00000000        0x0 /opt/microchip/xc32/v5.00/bin/bin/../../lib/gcc/pic32m/13.2.1/../../../../pic32m/lib/libc-musl.a(putchar.o)
 .mdebug.abi32  0x00000000        0x0 /opt/microchip/xc32/v5.00/bin/bin/../../lib/gcc/pic32m/13.2.1/../../../../pic32m/lib/libc-musl.a(puts.o)
 .mdebug.abi32  0x00000000        0x0 /opt/microchip/xc32/v5.00/bin/bin/../../lib/gcc/pic32m/13.2.1/../../../../pic32m/lib/libc-musl.a(_Exit.o)
 .mdebug.abi32  0x00000000        0x0 /opt/microchip/xc32/v5.00/bin/bin/../../lib/gcc/pic32m/13.2.1/../../../../pic32m/lib/libc-musl.a(fputs.o)
 .mdebug.abi32  0x00000000        0x0 /opt/microchip/xc32/v5.00/bin/bin/../../lib/gcc/pic32m/13.2.1/../../../../pic32m/lib/libc-musl.a(__io_fmt_needed.o)
 .mdebug.abi32  0x00000000        0x0 /opt/microchip/xc32/v5.00/bin/bin/../../lib/gcc/pic32m/13.2.1/../../../../pic32m/lib/libc-musl.a(__io_init_needed.o)
 .mdebug.abi32  0x00000000        0x0 /opt/microchip/xc32/v5.00/bin/bin/../../lib/gcc/pic32m/13.2.1/../../../../pic32m/lib/libc-musl.a(__out.o)
 .mdebug.abi32  0x00000000        0x0 /opt/microchip/xc32/v5.00/bin/bin/../../lib/gcc/pic32m/13.2.1/../../../../pic32m/lib/libc-musl.a(__pop_float.o)
 .mdebug.abi32  0x00000000        0x0 /opt/microchip/xc32/v5.00/bin/bin/../../lib/gcc/pic32m/13.2.1/../../../../pic32m/lib/libc-musl.a(__pop_int.o)
 .mdebug.abi32  0x00000000        0x0 /opt/microchip/xc32/v5.00/bin/bin/../../lib/gcc/pic32m/13.2.1/../../../../pic32m/lib/libc-musl.a(__pop_ptr.o)
 .mdebug.abi32  0x00000000        0x0 /opt/microchip/xc32/v5.00/bin/bin/../../lib/gcc/pic32m/13.2.1/../../../../pic32m/lib/libc-musl.a(__printf_core.o)
 .mdebug.abi32  0x00000000        0x0 /opt/microchip/xc32/v5.00/bin/bin/../../lib/gcc/pic32m/13.2.1/../../../../pic32m/lib/libc-musl.a(__stdio_close.o)
 .mdebug.abi32  0x00000000        0x0 /opt/microchip/xc32/v5.00/bin/bin/../../lib/gcc/pic32m/13.2.1/../../../../pic32m/lib/libc-musl.a(fwrite.o)
 .mdebug.abi32  0x00000000        0x0 /opt/microchip/xc32/v5.00/bin/bin/../../lib/gcc/pic32m/13.2.1/../../../../pic32m/lib/libc-musl.a(putc.o)
 .mdebug.abi32  0x00000000        0x0 /opt/microchip/xc32/v5.00/bin/bin/../../lib/gcc/pic32m/13.2.1/../../../../pic32m/lib/libc-musl.a(stdout.o)
 .mdebug.abi32  0x00000000        0x0 /opt/microchip/xc32/v5.00/bin/bin/../../lib/gcc/pic32m/13.2.1/../../../../pic32m/lib/libc-musl.a(atoi.o)
 .mdebug.abi32  0x00000000        0x0 /opt/microchip/xc32/v5.00/bin/bin/../../lib/gcc/pic32m/13.2.1/../../../../pic32m/lib/libc-musl.a(tolower.o)
 .mdebug.abi32  0x00000000        0x0 /opt/microchip/xc32/v5.00/bin/bin/../../lib/gcc/pic32m/13.2.1/../../../../pic32m/lib/libc-musl.a(__fmt_a.o)
 .mdebug.abi32  0x00000000        0x0 /opt/microchip/xc32/v5.00/bin/bin/../../lib/gcc/pic32m/13.2.1/../../../../pic32m/lib/libc-musl.a(__fmt_d.o)
 .mdebug.abi32  0x00000000        0x0 /opt/microchip/xc32/v5.00/bin/bin/../../lib/gcc/pic32m/13.2.1/../../../../pic32m/lib/libc-musl.a(__fmt_fp.o)
 .mdebug.abi32  0x00000000        0x0 /opt/microchip/xc32/v5.00/bin/bin/../../lib/gcc/pic32m/13.2.1/../../../../pic32m/lib/libc-musl.a(__fmt_o.o)
 .mdebug.abi32  0x00000000        0x0 /opt/microchip/xc32/v5.00/bin/bin/../../lib/gcc/pic32m/13.2.1/../../../../pic32m/lib/libc-musl.a(__fmt_s.o)
 .mdebug.abi32  0x00000000        0x0 /opt/microchip/xc32/v5.00/bin/bin/../../lib/gcc/pic32m/13.2.1/../../../../pic32m/lib/libc-musl.a(__fmt_u.o)
 .mdebug.abi32  0x00000000        0x0 /opt/microchip/xc32/v5.00/bin/bin/../../lib/gcc/pic32m/13.2.1/../../../../pic32m/lib/libc-musl.a(__fmt_x.o)
 .mdebug.abi32  0x00000000        0x0 /opt/microchip/xc32/v5.00/bin/bin/../../lib/gcc/pic32m/13.2.1/../../../../pic32m/lib/libc-musl.a(__init_stdio.o)
 .mdebug.abi32  0x00000000        0x0 /opt/microchip/xc32/v5.00/bin/bin/../../lib/gcc/pic32m/13.2.1/../../../../pic32m/lib/libc-musl.a(__io_file_needed.o)
 .mdebug.abi32  0x00000000        0x0 /opt/microchip/xc32/v5.00/bin/bin/../../lib/gcc/pic32m/13.2.1/../../../../pic32m/lib/libc-musl.a(toupper.o)
 .mdebug.abi32  0x00000000        0x0 /opt/microchip/xc32/v5.00/bin/bin/../../lib/gcc/pic32m/13.2.1/../../../../pic32m/lib/libc-musl.a(__cvt_u.o)
 .mdebug.abi32  0x00000000        0x0 /opt/microchip/xc32/v5.00/bin/bin/../../lib/gcc/pic32m/13.2.1/../../../../pic32m/lib/libm-musl.a(fma.o)
 .mdebug.abi32  0x00000000        0x0 /opt/microchip/xc32/v5.00/bin/bin/../../lib/gcc/pic32m/13.2.1/../../../../pic32m/lib/libm-musl.a(scalbn.o)
 .mdebug.abi32  0x00000000        0x0 /opt/microchip/xc32/v5.00/bin/bin/../../lib/gcc/pic32m/13.2.1/../../../../pic32m/lib/libpic32.a(_exit.o)
 .mdebug.abi32  0x00000000        0x0 /opt/microchip/xc32/v5.00/bin/bin/../../lib/gcc/pic32m/13.2.1/../../../../pic32m/lib/libpic32.a(write.o)
 .mdebug.abi32  0x00000000        0x0 /opt/microchip/xc32/v5.00/bin/bin/../../lib/gcc/pic32m/13.2.1/../../../../pic32m/lib/libpic32.a(lseek.o)
 .mdebug.abi32  0x00000000        0x0 /opt/microchip/xc32/v5.00/bin/bin/../../lib/gcc/pic32m/13.2.1/../../../../pic32m/lib/libpic32.a(close.o)
 .mdebug.abi32  0x00000000        0x0 /opt/microchip/xc32/v5.00/bin/bin/../../lib/gcc/pic32m/13.2.1/../../../../pic32m/lib/libpic32.a(errno.o)
 .mdebug.abi32  0x00000000        0x0 /opt/microchip/xc32/v5.00/bin/bin/../../lib/gcc/pic32m/13.2.1/../../../../pic32m/lib/libc-size-musl.a(memcpy.o)
 .mdebug.abi32  0x00000000        0x0 /opt/microchip/xc32/v5.00/bin/bin/../../lib/gcc/pic32m/13.2.1/../../../../pic32m/lib/libc-size-musl.a(memset.o)
 .mdebug.abi32  0x00000000        0x0 /opt/microchip/xc32/v5.00/bin/bin/../../lib/gcc/pic32m/13.2.1/../../../../pic32m/lib/libc-size-musl.a(strlen.o)
 .mdebug.abi32  0x00000000        0x0 /opt/microchip/xc32/v5.00/bin/bin/../../lib/gcc/pic32m/13.2.1/../../../../pic32m/lib/libc-size-musl.a(strcpy.o)
 .mdebug.abi32  0x00000000        0x0 /opt/microchip/xc32/v5.00/bin/bin/../../lib/gcc/pic32m/13.2.1/../../../../pic32m/lib/libc-size-musl.a(stpcpy.o)
 .mdebug.abi32  0x00000000        0x0 /opt/microchip/xc32/v5.00/bin/bin/../../lib/gcc/pic32m/13.2.1/../../../../pic32m/lib/libe.a(_floatdidf.o)
 .mdebug.abi32  0x00000000        0x0 /opt/microchip/xc32/v5.00/bin/bin/../../lib/gcc/pic32m/13.2.1/libgcc.a(_lshrdi3.o)
 .mdebug.abi32  0x00000000        0x0 /opt/microchip/xc32/v5.00/bin/bin/../../lib/gcc/pic32m/13.2.1/libgcc.a(_ashldi3.o)
 .mdebug.abi32  0x00000000        0x0 /opt/microchip/xc32/v5.00/bin/bin/../../lib/gcc/pic32m/13.2.1/libgcc.a(_udivdi3.o)
 .mdebug.abi32  0x00000000        0x0 /opt/microchip/xc32/v5.00/bin/bin/../../lib/gcc/pic32m/13.2.1/libgcc.a(_umoddi3.o)

.mdebug.abiN32
 *(.mdebug.abiN32)

.mdebug.abi64
 *(.mdebug.abi64)

.mdebug.abiO64
 *(.mdebug.abiO64)

.mdebug.eabi32
 *(.mdebug.eabi32)

.mdebug.eabi64
 *(.mdebug.eabi64)

.gcc_compiled_long32
 *(.gcc_compiled_long32)

.gcc_compiled_long64
 *(.gcc_compiled_long64)

.stab
 *(.stab)

.stabstr
 *(.stabstr)

.stab.excl
 *(.stab.excl)

.stab.exclstr
 *(.stab.exclstr)

.stab.index
 *(.stab.index)

.stab.indexstr
 *(.stab.indexstr)

.comment        0x00000000       0xd3
 *(.comment)
 .comment       0x00000000       0xd3 build/default/production/FrameworkSource/ES_CheckEvents.o
                                 0x36 (size before relaxing)
 .comment       0x000000d3       0x36 build/default/production/FrameworkSource/ES_DeferRecall.o
 .comment       0x000000d3       0x36 build/default/production/FrameworkSource/ES_Framework.o
 .comment       0x000000d3       0x36 build/default/production/FrameworkSource/ES_LookupTables.o
 .comment       0x000000d3       0x36 build/default/production/FrameworkSource/ES_Port.o
 .comment       0x000000d3       0x36 build/default/production/FrameworkSource/ES_PostList.o
 .comment       0x000000d3       0x36 build/default/production/FrameworkSource/ES_Queue.o
 .comment       0x000000d3       0x36 build/default/production/FrameworkSource/ES_Timers.o
 .comment       0x000000d3       0x36 build/default/production/FrameworkSource/terminal.o
 .comment       0x000000d3       0x36 build/default/production/FrameworkSource/circular_buffer_no_modulo_threadsafe.o
 .comment       0x000000d3       0x36 build/default/production/FrameworkSource/dbprintf.o
 .comment       0x000000d3       0x36 build/default/production/ProjectSource/EventCheckers.o
 .comment       0x000000d3       0x36 build/default/production/ProjectSource/TestHarnessService0.o
 .comment       0x000000d3       0x36 build/default/production/ProjectSource/main.o
 .comment       0x000000d3       0x36 build/default/production/ProjectSource/ADService.o
 .comment       0x000000d3       0x36 build/default/production/ProjectSource/PIC32_AD_Lib.o
 .comment       0x000000d3       0x36 build/default/production/ProjectSource/DCMotorService.o
 .comment       0x000000d3       0x36 build/default/production/ProjectSource/PIC32_SPI_HAL.o
 .comment       0x000000d3       0x36 build/default/production/ProjectSource/CommandRetrieveService.o
 .comment       0x000000d3       0x36 build/default/production/ProjectSource/MainLogicFSM.o
 .comment       0x000000d3       0x36 build/default/production/ProjectSource/Ports.o
 .comment       0x000000d3       0x36 build/default/production/ProjectSource/CommonDefinitions.o
 .comment       0x000000d3       0x36 /opt/microchip/xc32/v5.00/bin/bin/../../lib/gcc/pic32m/13.2.1/libgcc.a(floatunsisf.o)
 .comment       0x000000d3       0x36 /opt/microchip/xc32/v5.00/bin/bin/../../lib/gcc/pic32m/13.2.1/../../../../pic32m/lib/libpic32.a(default-bootstrap-exception-handler.o)
 .comment       0x000000d3       0x36 /opt/microchip/xc32/v5.00/bin/bin/../../lib/gcc/pic32m/13.2.1/../../../../pic32m/lib/libpic32.a(default-on-reset.o)
 .comment       0x000000d3       0x36 /opt/microchip/xc32/v5.00/bin/bin/../../lib/gcc/pic32m/13.2.1/../../../../pic32m/lib/libpic32.a(default-on-bootstrap.o)
 .comment       0x000000d3       0x36 /opt/microchip/xc32/v5.00/bin/bin/../../lib/gcc/pic32m/13.2.1/../../../../pic32m/lib/libpic32.a(xc32_uart.o)
 .comment       0x000000d3       0x36 /opt/microchip/xc32/v5.00/bin/bin/../../lib/gcc/pic32m/13.2.1/../../../../pic32m/lib/libpic32.a(default-general-exception-handler.o)
 .comment       0x000000d3       0x36 /opt/microchip/xc32/v5.00/bin/bin/../../lib/gcc/pic32m/13.2.1/../../../../pic32m/lib/libpic32.a(defaultinterrupt.o)
 .comment       0x000000d3       0x36 /opt/microchip/xc32/v5.00/bin/bin/../../lib/gcc/pic32m/13.2.1/../../../../pic32m/lib/libc-musl.a(assert.o)
 .comment       0x000000d3       0x36 /opt/microchip/xc32/v5.00/bin/bin/../../lib/gcc/pic32m/13.2.1/../../../../pic32m/lib/libc-musl.a(abort.o)
 .comment       0x000000d3       0x36 /opt/microchip/xc32/v5.00/bin/bin/../../lib/gcc/pic32m/13.2.1/../../../../pic32m/lib/libc-musl.a(fprintf.o)
 .comment       0x000000d3       0x36 /opt/microchip/xc32/v5.00/bin/bin/../../lib/gcc/pic32m/13.2.1/../../../../pic32m/lib/libc-musl.a(fflush.o)
 .comment       0x000000d3       0x36 /opt/microchip/xc32/v5.00/bin/bin/../../lib/gcc/pic32m/13.2.1/../../../../pic32m/lib/libc-musl.a(vfprintf.o)
 .comment       0x000000d3       0x36 /opt/microchip/xc32/v5.00/bin/bin/../../lib/gcc/pic32m/13.2.1/../../../../pic32m/lib/libc-musl.a(stderr.o)
 .comment       0x000000d3       0x36 /opt/microchip/xc32/v5.00/bin/bin/../../lib/gcc/pic32m/13.2.1/../../../../pic32m/lib/libc-musl.a(putchar.o)
 .comment       0x000000d3       0x36 /opt/microchip/xc32/v5.00/bin/bin/../../lib/gcc/pic32m/13.2.1/../../../../pic32m/lib/libc-musl.a(puts.o)
 .comment       0x000000d3       0x36 /opt/microchip/xc32/v5.00/bin/bin/../../lib/gcc/pic32m/13.2.1/../../../../pic32m/lib/libc-musl.a(_Exit.o)
 .comment       0x000000d3       0x36 /opt/microchip/xc32/v5.00/bin/bin/../../lib/gcc/pic32m/13.2.1/../../../../pic32m/lib/libc-musl.a(fputs.o)
 .comment       0x000000d3       0x36 /opt/microchip/xc32/v5.00/bin/bin/../../lib/gcc/pic32m/13.2.1/../../../../pic32m/lib/libc-musl.a(__io_fmt_needed.o)
 .comment       0x000000d3       0x36 /opt/microchip/xc32/v5.00/bin/bin/../../lib/gcc/pic32m/13.2.1/../../../../pic32m/lib/libc-musl.a(__io_init_needed.o)
 .comment       0x000000d3       0x36 /opt/microchip/xc32/v5.00/bin/bin/../../lib/gcc/pic32m/13.2.1/../../../../pic32m/lib/libc-musl.a(__out.o)
 .comment       0x000000d3       0x36 /opt/microchip/xc32/v5.00/bin/bin/../../lib/gcc/pic32m/13.2.1/../../../../pic32m/lib/libc-musl.a(__pop_float.o)
 .comment       0x000000d3       0x36 /opt/microchip/xc32/v5.00/bin/bin/../../lib/gcc/pic32m/13.2.1/../../../../pic32m/lib/libc-musl.a(__pop_int.o)
 .comment       0x000000d3       0x36 /opt/microchip/xc32/v5.00/bin/bin/../../lib/gcc/pic32m/13.2.1/../../../../pic32m/lib/libc-musl.a(__pop_ptr.o)
 .comment       0x000000d3       0x36 /opt/microchip/xc32/v5.00/bin/bin/../../lib/gcc/pic32m/13.2.1/../../../../pic32m/lib/libc-musl.a(__printf_core.o)
 .comment       0x000000d3       0x36 /opt/microchip/xc32/v5.00/bin/bin/../../lib/gcc/pic32m/13.2.1/../../../../pic32m/lib/libc-musl.a(__stdio_close.o)
 .comment       0x000000d3       0x36 /opt/microchip/xc32/v5.00/bin/bin/../../lib/gcc/pic32m/13.2.1/../../../../pic32m/lib/libc-musl.a(fwrite.o)
 .comment       0x000000d3       0x36 /opt/microchip/xc32/v5.00/bin/bin/../../lib/gcc/pic32m/13.2.1/../../../../pic32m/lib/libc-musl.a(putc.o)
 .comment       0x000000d3       0x36 /opt/microchip/xc32/v5.00/bin/bin/../../lib/gcc/pic32m/13.2.1/../../../../pic32m/lib/libc-musl.a(stdout.o)
 .comment       0x000000d3       0x36 /opt/microchip/xc32/v5.00/bin/bin/../../lib/gcc/pic32m/13.2.1/../../../../pic32m/lib/libc-musl.a(atoi.o)
 .comment       0x000000d3       0x36 /opt/microchip/xc32/v5.00/bin/bin/../../lib/gcc/pic32m/13.2.1/../../../../pic32m/lib/libc-musl.a(tolower.o)
 .comment       0x000000d3       0x36 /opt/microchip/xc32/v5.00/bin/bin/../../lib/gcc/pic32m/13.2.1/../../../../pic32m/lib/libc-musl.a(__fmt_a.o)
 .comment       0x000000d3       0x36 /opt/microchip/xc32/v5.00/bin/bin/../../lib/gcc/pic32m/13.2.1/../../../../pic32m/lib/libc-musl.a(__fmt_d.o)
 .comment       0x000000d3       0x36 /opt/microchip/xc32/v5.00/bin/bin/../../lib/gcc/pic32m/13.2.1/../../../../pic32m/lib/libc-musl.a(__fmt_fp.o)
 .comment       0x000000d3       0x36 /opt/microchip/xc32/v5.00/bin/bin/../../lib/gcc/pic32m/13.2.1/../../../../pic32m/lib/libc-musl.a(__fmt_o.o)
 .comment       0x000000d3       0x36 /opt/microchip/xc32/v5.00/bin/bin/../../lib/gcc/pic32m/13.2.1/../../../../pic32m/lib/libc-musl.a(__fmt_s.o)
 .comment       0x000000d3       0x36 /opt/microchip/xc32/v5.00/bin/bin/../../lib/gcc/pic32m/13.2.1/../../../../pic32m/lib/libc-musl.a(__fmt_u.o)
 .comment       0x000000d3       0x36 /opt/microchip/xc32/v5.00/bin/bin/../../lib/gcc/pic32m/13.2.1/../../../../pic32m/lib/libc-musl.a(__fmt_x.o)
 .comment       0x000000d3       0x36 /opt/microchip/xc32/v5.00/bin/bin/../../lib/gcc/pic32m/13.2.1/../../../../pic32m/lib/libc-musl.a(__init_stdio.o)
 .comment       0x000000d3       0x36 /opt/microchip/xc32/v5.00/bin/bin/../../lib/gcc/pic32m/13.2.1/../../../../pic32m/lib/libc-musl.a(__io_file_needed.o)
 .comment       0x000000d3       0x36 /opt/microchip/xc32/v5.00/bin/bin/../../lib/gcc/pic32m/13.2.1/../../../../pic32m/lib/libc-musl.a(toupper.o)
 .comment       0x000000d3       0x36 /opt/microchip/xc32/v5.00/bin/bin/../../lib/gcc/pic32m/13.2.1/../../../../pic32m/lib/libc-musl.a(__cvt_u.o)
 .comment       0x000000d3       0x36 /opt/microchip/xc32/v5.00/bin/bin/../../lib/gcc/pic32m/13.2.1/../../../../pic32m/lib/libm-musl.a(fma.o)
 .comment       0x000000d3       0x36 /opt/microchip/xc32/v5.00/bin/bin/../../lib/gcc/pic32m/13.2.1/../../../../pic32m/lib/libm-musl.a(scalbn.o)
 .comment       0x000000d3       0x36 /opt/microchip/xc32/v5.00/bin/bin/../../lib/gcc/pic32m/13.2.1/../../../../pic32m/lib/libpic32.a(_exit.o)
 .comment       0x000000d3       0x36 /opt/microchip/xc32/v5.00/bin/bin/../../lib/gcc/pic32m/13.2.1/../../../../pic32m/lib/libpic32.a(write.o)
 .comment       0x000000d3       0x36 /opt/microchip/xc32/v5.00/bin/bin/../../lib/gcc/pic32m/13.2.1/../../../../pic32m/lib/libpic32.a(lseek.o)
 .comment       0x000000d3       0x36 /opt/microchip/xc32/v5.00/bin/bin/../../lib/gcc/pic32m/13.2.1/../../../../pic32m/lib/libpic32.a(close.o)
 .comment       0x000000d3       0x36 /opt/microchip/xc32/v5.00/bin/bin/../../lib/gcc/pic32m/13.2.1/../../../../pic32m/lib/libpic32.a(errno.o)
 .comment       0x000000d3       0x36 /opt/microchip/xc32/v5.00/bin/bin/../../lib/gcc/pic32m/13.2.1/../../../../pic32m/lib/libc-size-musl.a(memcpy.o)
 .comment       0x000000d3       0x36 /opt/microchip/xc32/v5.00/bin/bin/../../lib/gcc/pic32m/13.2.1/../../../../pic32m/lib/libc-size-musl.a(memset.o)
 .comment       0x000000d3       0x36 /opt/microchip/xc32/v5.00/bin/bin/../../lib/gcc/pic32m/13.2.1/../../../../pic32m/lib/libc-size-musl.a(strlen.o)
 .comment       0x000000d3       0x36 /opt/microchip/xc32/v5.00/bin/bin/../../lib/gcc/pic32m/13.2.1/../../../../pic32m/lib/libc-size-musl.a(strcpy.o)
 .comment       0x000000d3       0x36 /opt/microchip/xc32/v5.00/bin/bin/../../lib/gcc/pic32m/13.2.1/../../../../pic32m/lib/libc-size-musl.a(stpcpy.o)
 .comment       0x000000d3       0xd4 /opt/microchip/xc32/v5.00/bin/bin/../../lib/gcc/pic32m/13.2.1/../../../../pic32m/lib/libe.a(_floatdidf.o)
 .comment       0x000000d3       0x36 /opt/microchip/xc32/v5.00/bin/bin/../../lib/gcc/pic32m/13.2.1/libgcc.a(_lshrdi3.o)
 .comment       0x000000d3       0x36 /opt/microchip/xc32/v5.00/bin/bin/../../lib/gcc/pic32m/13.2.1/libgcc.a(_ashldi3.o)
 .comment       0x000000d3       0x36 /opt/microchip/xc32/v5.00/bin/bin/../../lib/gcc/pic32m/13.2.1/libgcc.a(_udivdi3.o)
 .comment       0x000000d3       0x36 /opt/microchip/xc32/v5.00/bin/bin/../../lib/gcc/pic32m/13.2.1/libgcc.a(_umoddi3.o)

.debug
 *.elf(.debug)
 *(.debug)

.line
 *.elf(.line)
 *(.line)

.debug_srcinfo
 *.elf(.debug_srcinfo)
 *(.debug_srcinfo)

.debug_sfnames
 *.elf(.debug_sfnames)
 *(.debug_sfnames)

.debug_aranges  0x00000000      0xab0
 *.elf(.debug_aranges)
 *(.debug_aranges)
 .debug_aranges
                0x00000000       0x20 build/default/production/FrameworkSource/ES_CheckEvents.o
 .debug_aranges
                0x00000020       0x20 build/default/production/FrameworkSource/ES_DeferRecall.o
 .debug_aranges
                0x00000040       0x20 build/default/production/FrameworkSource/ES_Framework.o
 .debug_aranges
                0x00000060       0x20 build/default/production/FrameworkSource/ES_LookupTables.o
 .debug_aranges
                0x00000080       0x20 build/default/production/FrameworkSource/ES_Port.o
 .debug_aranges
                0x000000a0       0x18 build/default/production/FrameworkSource/ES_PostList.o
 .debug_aranges
                0x000000b8       0x20 build/default/production/FrameworkSource/ES_Queue.o
 .debug_aranges
                0x000000d8       0x20 build/default/production/FrameworkSource/ES_Timers.o
 .debug_aranges
                0x000000f8       0x20 build/default/production/FrameworkSource/terminal.o
 .debug_aranges
                0x00000118       0x20 build/default/production/FrameworkSource/circular_buffer_no_modulo_threadsafe.o
 .debug_aranges
                0x00000138       0x20 build/default/production/FrameworkSource/dbprintf.o
 .debug_aranges
                0x00000158       0x20 build/default/production/ProjectSource/EventCheckers.o
 .debug_aranges
                0x00000178       0x20 build/default/production/ProjectSource/TestHarnessService0.o
 .debug_aranges
                0x00000198       0x20 build/default/production/ProjectSource/main.o
 .debug_aranges
                0x000001b8       0x20 build/default/production/ProjectSource/ADService.o
 .debug_aranges
                0x000001d8       0x20 build/default/production/ProjectSource/PIC32_AD_Lib.o
 .debug_aranges
                0x000001f8       0x20 build/default/production/ProjectSource/DCMotorService.o
 .debug_aranges
                0x00000218       0x20 build/default/production/ProjectSource/PIC32_SPI_HAL.o
 .debug_aranges
                0x00000238       0x20 build/default/production/ProjectSource/CommandRetrieveService.o
 .debug_aranges
                0x00000258       0x20 build/default/production/ProjectSource/MainLogicFSM.o
 .debug_aranges
                0x00000278       0x20 build/default/production/ProjectSource/Ports.o
 .debug_aranges
                0x00000298       0x20 build/default/production/ProjectSource/CommonDefinitions.o
 .debug_aranges
                0x000002b8       0x20 /opt/microchip/xc32/v5.00/bin/bin/../../lib/gcc/pic32m/13.2.1/libgcc.a(floatunsisf.o)
 .debug_aranges
                0x000002d8       0x20 /opt/microchip/xc32/v5.00/bin/bin/../../lib/gcc/pic32m/13.2.1/../../../../pic32m/lib/libpic32.a(default-bootstrap-exception-handler.o)
 .debug_aranges
                0x000002f8       0x20 /opt/microchip/xc32/v5.00/bin/bin/../../lib/gcc/pic32m/13.2.1/../../../../pic32m/lib/libpic32.a(default-on-reset.o)
 .debug_aranges
                0x00000318       0x20 /opt/microchip/xc32/v5.00/bin/bin/../../lib/gcc/pic32m/13.2.1/../../../../pic32m/lib/libpic32.a(default-on-bootstrap.o)
 .debug_aranges
                0x00000338       0x18 /opt/microchip/xc32/v5.00/bin/bin/../../lib/gcc/pic32m/13.2.1/../../../../pic32m/lib/libpic32.a(xc32_uart.o)
 .debug_aranges
                0x00000350       0x20 /opt/microchip/xc32/v5.00/bin/bin/../../lib/gcc/pic32m/13.2.1/../../../../pic32m/lib/libpic32.a(default-general-exception-handler.o)
 .debug_aranges
                0x00000370       0x20 /opt/microchip/xc32/v5.00/bin/bin/../../lib/gcc/pic32m/13.2.1/../../../../pic32m/lib/libpic32.a(defaultinterrupt.o)
 .debug_aranges
                0x00000390       0x20 /opt/microchip/xc32/v5.00/bin/bin/../../lib/gcc/pic32m/13.2.1/../../../../pic32m/lib/libc-musl.a(assert.o)
 .debug_aranges
                0x000003b0       0x20 /opt/microchip/xc32/v5.00/bin/bin/../../lib/gcc/pic32m/13.2.1/../../../../pic32m/lib/libc-musl.a(abort.o)
 .debug_aranges
                0x000003d0       0x20 /opt/microchip/xc32/v5.00/bin/bin/../../lib/gcc/pic32m/13.2.1/../../../../pic32m/lib/libc-musl.a(fprintf.o)
 .debug_aranges
                0x000003f0       0x30 /opt/microchip/xc32/v5.00/bin/bin/../../lib/gcc/pic32m/13.2.1/../../../../pic32m/lib/libc-musl.a(fflush.o)
 .debug_aranges
                0x00000420       0x28 /opt/microchip/xc32/v5.00/bin/bin/../../lib/gcc/pic32m/13.2.1/../../../../pic32m/lib/libc-musl.a(vfprintf.o)
 .debug_aranges
                0x00000448       0x38 /opt/microchip/xc32/v5.00/bin/bin/../../lib/gcc/pic32m/13.2.1/../../../../pic32m/lib/libc-musl.a(stderr.o)
 .debug_aranges
                0x00000480       0x20 /opt/microchip/xc32/v5.00/bin/bin/../../lib/gcc/pic32m/13.2.1/../../../../pic32m/lib/libc-musl.a(putchar.o)
 .debug_aranges
                0x000004a0       0x20 /opt/microchip/xc32/v5.00/bin/bin/../../lib/gcc/pic32m/13.2.1/../../../../pic32m/lib/libc-musl.a(puts.o)
 .debug_aranges
                0x000004c0       0x20 /opt/microchip/xc32/v5.00/bin/bin/../../lib/gcc/pic32m/13.2.1/../../../../pic32m/lib/libc-musl.a(_Exit.o)
 .debug_aranges
                0x000004e0       0x20 /opt/microchip/xc32/v5.00/bin/bin/../../lib/gcc/pic32m/13.2.1/../../../../pic32m/lib/libc-musl.a(fputs.o)
 .debug_aranges
                0x00000500       0x20 /opt/microchip/xc32/v5.00/bin/bin/../../lib/gcc/pic32m/13.2.1/../../../../pic32m/lib/libc-musl.a(__io_fmt_needed.o)
 .debug_aranges
                0x00000520       0x28 /opt/microchip/xc32/v5.00/bin/bin/../../lib/gcc/pic32m/13.2.1/../../../../pic32m/lib/libc-musl.a(__io_init_needed.o)
 .debug_aranges
                0x00000548       0x28 /opt/microchip/xc32/v5.00/bin/bin/../../lib/gcc/pic32m/13.2.1/../../../../pic32m/lib/libc-musl.a(__out.o)
 .debug_aranges
                0x00000570       0x20 /opt/microchip/xc32/v5.00/bin/bin/../../lib/gcc/pic32m/13.2.1/../../../../pic32m/lib/libc-musl.a(__pop_float.o)
 .debug_aranges
                0x00000590       0x20 /opt/microchip/xc32/v5.00/bin/bin/../../lib/gcc/pic32m/13.2.1/../../../../pic32m/lib/libc-musl.a(__pop_int.o)
 .debug_aranges
                0x000005b0       0x20 /opt/microchip/xc32/v5.00/bin/bin/../../lib/gcc/pic32m/13.2.1/../../../../pic32m/lib/libc-musl.a(__pop_ptr.o)
 .debug_aranges
                0x000005d0       0x50 /opt/microchip/xc32/v5.00/bin/bin/../../lib/gcc/pic32m/13.2.1/../../../../pic32m/lib/libc-musl.a(__printf_core.o)
 .debug_aranges
                0x00000620       0x28 /opt/microchip/xc32/v5.00/bin/bin/../../lib/gcc/pic32m/13.2.1/../../../../pic32m/lib/libc-musl.a(__stdio_close.o)
 .debug_aranges
                0x00000648       0x28 /opt/microchip/xc32/v5.00/bin/bin/../../lib/gcc/pic32m/13.2.1/../../../../pic32m/lib/libc-musl.a(fwrite.o)
 .debug_aranges
                0x00000670       0x30 /opt/microchip/xc32/v5.00/bin/bin/../../lib/gcc/pic32m/13.2.1/../../../../pic32m/lib/libc-musl.a(putc.o)
 .debug_aranges
                0x000006a0       0x30 /opt/microchip/xc32/v5.00/bin/bin/../../lib/gcc/pic32m/13.2.1/../../../../pic32m/lib/libc-musl.a(stdout.o)
 .debug_aranges
                0x000006d0       0x20 /opt/microchip/xc32/v5.00/bin/bin/../../lib/gcc/pic32m/13.2.1/../../../../pic32m/lib/libc-musl.a(atoi.o)
 .debug_aranges
                0x000006f0       0x28 /opt/microchip/xc32/v5.00/bin/bin/../../lib/gcc/pic32m/13.2.1/../../../../pic32m/lib/libc-musl.a(tolower.o)
 .debug_aranges
                0x00000718       0x20 /opt/microchip/xc32/v5.00/bin/bin/../../lib/gcc/pic32m/13.2.1/../../../../pic32m/lib/libc-musl.a(__fmt_a.o)
 .debug_aranges
                0x00000738       0x20 /opt/microchip/xc32/v5.00/bin/bin/../../lib/gcc/pic32m/13.2.1/../../../../pic32m/lib/libc-musl.a(__fmt_d.o)
 .debug_aranges
                0x00000758       0x20 /opt/microchip/xc32/v5.00/bin/bin/../../lib/gcc/pic32m/13.2.1/../../../../pic32m/lib/libc-musl.a(__fmt_fp.o)
 .debug_aranges
                0x00000778       0x20 /opt/microchip/xc32/v5.00/bin/bin/../../lib/gcc/pic32m/13.2.1/../../../../pic32m/lib/libc-musl.a(__fmt_o.o)
 .debug_aranges
                0x00000798       0x20 /opt/microchip/xc32/v5.00/bin/bin/../../lib/gcc/pic32m/13.2.1/../../../../pic32m/lib/libc-musl.a(__fmt_s.o)
 .debug_aranges
                0x000007b8       0x20 /opt/microchip/xc32/v5.00/bin/bin/../../lib/gcc/pic32m/13.2.1/../../../../pic32m/lib/libc-musl.a(__fmt_u.o)
 .debug_aranges
                0x000007d8       0x20 /opt/microchip/xc32/v5.00/bin/bin/../../lib/gcc/pic32m/13.2.1/../../../../pic32m/lib/libc-musl.a(__fmt_x.o)
 .debug_aranges
                0x000007f8       0x28 /opt/microchip/xc32/v5.00/bin/bin/../../lib/gcc/pic32m/13.2.1/../../../../pic32m/lib/libc-musl.a(__init_stdio.o)
 .debug_aranges
                0x00000820       0x20 /opt/microchip/xc32/v5.00/bin/bin/../../lib/gcc/pic32m/13.2.1/../../../../pic32m/lib/libc-musl.a(__io_file_needed.o)
 .debug_aranges
                0x00000840       0x28 /opt/microchip/xc32/v5.00/bin/bin/../../lib/gcc/pic32m/13.2.1/../../../../pic32m/lib/libc-musl.a(toupper.o)
 .debug_aranges
                0x00000868       0x20 /opt/microchip/xc32/v5.00/bin/bin/../../lib/gcc/pic32m/13.2.1/../../../../pic32m/lib/libc-musl.a(__cvt_u.o)
 .debug_aranges
                0x00000888       0x30 /opt/microchip/xc32/v5.00/bin/bin/../../lib/gcc/pic32m/13.2.1/../../../../pic32m/lib/libm-musl.a(fma.o)
 .debug_aranges
                0x000008b8       0x20 /opt/microchip/xc32/v5.00/bin/bin/../../lib/gcc/pic32m/13.2.1/../../../../pic32m/lib/libm-musl.a(scalbn.o)
 .debug_aranges
                0x000008d8       0x20 /opt/microchip/xc32/v5.00/bin/bin/../../lib/gcc/pic32m/13.2.1/../../../../pic32m/lib/libpic32.a(_exit.o)
 .debug_aranges
                0x000008f8       0x20 /opt/microchip/xc32/v5.00/bin/bin/../../lib/gcc/pic32m/13.2.1/../../../../pic32m/lib/libpic32.a(write.o)
 .debug_aranges
                0x00000918       0x20 /opt/microchip/xc32/v5.00/bin/bin/../../lib/gcc/pic32m/13.2.1/../../../../pic32m/lib/libpic32.a(lseek.o)
 .debug_aranges
                0x00000938       0x20 /opt/microchip/xc32/v5.00/bin/bin/../../lib/gcc/pic32m/13.2.1/../../../../pic32m/lib/libpic32.a(close.o)
 .debug_aranges
                0x00000958       0x18 /opt/microchip/xc32/v5.00/bin/bin/../../lib/gcc/pic32m/13.2.1/../../../../pic32m/lib/libpic32.a(errno.o)
 .debug_aranges
                0x00000970       0x20 /opt/microchip/xc32/v5.00/bin/bin/../../lib/gcc/pic32m/13.2.1/../../../../pic32m/lib/libc-size-musl.a(memcpy.o)
 .debug_aranges
                0x00000990       0x20 /opt/microchip/xc32/v5.00/bin/bin/../../lib/gcc/pic32m/13.2.1/../../../../pic32m/lib/libc-size-musl.a(memset.o)
 .debug_aranges
                0x000009b0       0x20 /opt/microchip/xc32/v5.00/bin/bin/../../lib/gcc/pic32m/13.2.1/../../../../pic32m/lib/libc-size-musl.a(strlen.o)
 .debug_aranges
                0x000009d0       0x20 /opt/microchip/xc32/v5.00/bin/bin/../../lib/gcc/pic32m/13.2.1/../../../../pic32m/lib/libc-size-musl.a(strcpy.o)
 .debug_aranges
                0x000009f0       0x20 /opt/microchip/xc32/v5.00/bin/bin/../../lib/gcc/pic32m/13.2.1/../../../../pic32m/lib/libc-size-musl.a(stpcpy.o)
 .debug_aranges
                0x00000a10       0x20 /opt/microchip/xc32/v5.00/bin/bin/../../lib/gcc/pic32m/13.2.1/../../../../pic32m/lib/libe.a(_floatdidf.o)
 .debug_aranges
                0x00000a30       0x20 /opt/microchip/xc32/v5.00/bin/bin/../../lib/gcc/pic32m/13.2.1/libgcc.a(_lshrdi3.o)
 .debug_aranges
                0x00000a50       0x20 /opt/microchip/xc32/v5.00/bin/bin/../../lib/gcc/pic32m/13.2.1/libgcc.a(_ashldi3.o)
 .debug_aranges
                0x00000a70       0x20 /opt/microchip/xc32/v5.00/bin/bin/../../lib/gcc/pic32m/13.2.1/libgcc.a(_udivdi3.o)
 .debug_aranges
                0x00000a90       0x20 /opt/microchip/xc32/v5.00/bin/bin/../../lib/gcc/pic32m/13.2.1/libgcc.a(_umoddi3.o)

.debug_pubnames
 *.elf(.debug_pubnames)
 *(.debug_pubnames)

.debug_info     0x00000000    0x1029b
 *.elf(.debug_info .gnu.linkonce.wi.*)
 *(.debug_info .gnu.linkonce.wi.*)
 .debug_info    0x00000000      0x112 build/default/production/FrameworkSource/ES_CheckEvents.o
 .debug_info    0x00000112      0x1d6 build/default/production/FrameworkSource/ES_DeferRecall.o
 .debug_info    0x000002e8      0x660 build/default/production/FrameworkSource/ES_Framework.o
 .debug_info    0x00000948      0x151 build/default/production/FrameworkSource/ES_LookupTables.o
 .debug_info    0x00000a99      0xa26 build/default/production/FrameworkSource/ES_Port.o
 .debug_info    0x000014bf       0x79 build/default/production/FrameworkSource/ES_PostList.o
 .debug_info    0x00001538      0x341 build/default/production/FrameworkSource/ES_Queue.o
 .debug_info    0x00001879      0x480 build/default/production/FrameworkSource/ES_Timers.o
 .debug_info    0x00001cf9      0xa54 build/default/production/FrameworkSource/terminal.o
 .debug_info    0x0000274d      0x3a8 build/default/production/FrameworkSource/circular_buffer_no_modulo_threadsafe.o
 .debug_info    0x00002af5      0x1dd build/default/production/FrameworkSource/dbprintf.o
 .debug_info    0x00002cd2      0x64f build/default/production/ProjectSource/EventCheckers.o
 .debug_info    0x00003321      0x29e build/default/production/ProjectSource/TestHarnessService0.o
 .debug_info    0x000035bf      0x1c1 build/default/production/ProjectSource/main.o
 .debug_info    0x00003780      0x35d build/default/production/ProjectSource/ADService.o
 .debug_info    0x00003add      0x6c3 build/default/production/ProjectSource/PIC32_AD_Lib.o
 .debug_info    0x000041a0      0xb60 build/default/production/ProjectSource/DCMotorService.o
 .debug_info    0x00004d00     0x165d build/default/production/ProjectSource/PIC32_SPI_HAL.o
 .debug_info    0x0000635d      0xd26 build/default/production/ProjectSource/CommandRetrieveService.o
 .debug_info    0x00007083      0x4c1 build/default/production/ProjectSource/MainLogicFSM.o
 .debug_info    0x00007544      0x6c9 build/default/production/ProjectSource/Ports.o
 .debug_info    0x00007c0d      0x185 build/default/production/ProjectSource/CommonDefinitions.o
 .debug_info    0x00007d92       0xdb /opt/microchip/xc32/v5.00/bin/bin/../../lib/gcc/pic32m/13.2.1/libgcc.a(floatunsisf.o)
 .debug_info    0x00007e6d       0x72 /opt/microchip/xc32/v5.00/bin/bin/../../lib/gcc/pic32m/13.2.1/../../../../pic32m/lib/libpic32.a(default-bootstrap-exception-handler.o)
 .debug_info    0x00007edf       0x40 /opt/microchip/xc32/v5.00/bin/bin/../../lib/gcc/pic32m/13.2.1/../../../../pic32m/lib/libpic32.a(default-on-reset.o)
 .debug_info    0x00007f1f       0x40 /opt/microchip/xc32/v5.00/bin/bin/../../lib/gcc/pic32m/13.2.1/../../../../pic32m/lib/libpic32.a(default-on-bootstrap.o)
 .debug_info    0x00007f5f       0x38 /opt/microchip/xc32/v5.00/bin/bin/../../lib/gcc/pic32m/13.2.1/../../../../pic32m/lib/libpic32.a(xc32_uart.o)
 .debug_info    0x00007f97       0x72 /opt/microchip/xc32/v5.00/bin/bin/../../lib/gcc/pic32m/13.2.1/../../../../pic32m/lib/libpic32.a(default-general-exception-handler.o)
 .debug_info    0x00008009       0x9b /opt/microchip/xc32/v5.00/bin/bin/../../lib/gcc/pic32m/13.2.1/../../../../pic32m/lib/libpic32.a(defaultinterrupt.o)
 .debug_info    0x000080a4      0x1ae /opt/microchip/xc32/v5.00/bin/bin/../../lib/gcc/pic32m/13.2.1/../../../../pic32m/lib/libc-musl.a(assert.o)
 .debug_info    0x00008252       0x92 /opt/microchip/xc32/v5.00/bin/bin/../../lib/gcc/pic32m/13.2.1/../../../../pic32m/lib/libc-musl.a(abort.o)
 .debug_info    0x000082e4      0x148 /opt/microchip/xc32/v5.00/bin/bin/../../lib/gcc/pic32m/13.2.1/../../../../pic32m/lib/libc-musl.a(fprintf.o)
 .debug_info    0x0000842c      0x2ce /opt/microchip/xc32/v5.00/bin/bin/../../lib/gcc/pic32m/13.2.1/../../../../pic32m/lib/libc-musl.a(fflush.o)
 .debug_info    0x000086fa      0x411 /opt/microchip/xc32/v5.00/bin/bin/../../lib/gcc/pic32m/13.2.1/../../../../pic32m/lib/libc-musl.a(vfprintf.o)
 .debug_info    0x00008b0b      0x44a /opt/microchip/xc32/v5.00/bin/bin/../../lib/gcc/pic32m/13.2.1/../../../../pic32m/lib/libc-musl.a(stderr.o)
 .debug_info    0x00008f55       0xe9 /opt/microchip/xc32/v5.00/bin/bin/../../lib/gcc/pic32m/13.2.1/../../../../pic32m/lib/libc-musl.a(putchar.o)
 .debug_info    0x0000903e      0x3c7 /opt/microchip/xc32/v5.00/bin/bin/../../lib/gcc/pic32m/13.2.1/../../../../pic32m/lib/libc-musl.a(puts.o)
 .debug_info    0x00009405       0xb5 /opt/microchip/xc32/v5.00/bin/bin/../../lib/gcc/pic32m/13.2.1/../../../../pic32m/lib/libc-musl.a(_Exit.o)
 .debug_info    0x000094ba      0x3d7 /opt/microchip/xc32/v5.00/bin/bin/../../lib/gcc/pic32m/13.2.1/../../../../pic32m/lib/libc-musl.a(fputs.o)
 .debug_info    0x00009891      0x191 /opt/microchip/xc32/v5.00/bin/bin/../../lib/gcc/pic32m/13.2.1/../../../../pic32m/lib/libc-musl.a(__io_fmt_needed.o)
 .debug_info    0x00009a22       0xe2 /opt/microchip/xc32/v5.00/bin/bin/../../lib/gcc/pic32m/13.2.1/../../../../pic32m/lib/libc-musl.a(__io_init_needed.o)
 .debug_info    0x00009b04      0x2fd /opt/microchip/xc32/v5.00/bin/bin/../../lib/gcc/pic32m/13.2.1/../../../../pic32m/lib/libc-musl.a(__out.o)
 .debug_info    0x00009e01      0x13b /opt/microchip/xc32/v5.00/bin/bin/../../lib/gcc/pic32m/13.2.1/../../../../pic32m/lib/libc-musl.a(__pop_float.o)
 .debug_info    0x00009f3c      0x155 /opt/microchip/xc32/v5.00/bin/bin/../../lib/gcc/pic32m/13.2.1/../../../../pic32m/lib/libc-musl.a(__pop_int.o)
 .debug_info    0x0000a091      0x165 /opt/microchip/xc32/v5.00/bin/bin/../../lib/gcc/pic32m/13.2.1/../../../../pic32m/lib/libc-musl.a(__pop_ptr.o)
 .debug_info    0x0000a1f6      0xac9 /opt/microchip/xc32/v5.00/bin/bin/../../lib/gcc/pic32m/13.2.1/../../../../pic32m/lib/libc-musl.a(__printf_core.o)
 .debug_info    0x0000acbf      0x418 /opt/microchip/xc32/v5.00/bin/bin/../../lib/gcc/pic32m/13.2.1/../../../../pic32m/lib/libc-musl.a(__stdio_close.o)
 .debug_info    0x0000b0d7      0x289 /opt/microchip/xc32/v5.00/bin/bin/../../lib/gcc/pic32m/13.2.1/../../../../pic32m/lib/libc-musl.a(fwrite.o)
 .debug_info    0x0000b360      0x240 /opt/microchip/xc32/v5.00/bin/bin/../../lib/gcc/pic32m/13.2.1/../../../../pic32m/lib/libc-musl.a(putc.o)
 .debug_info    0x0000b5a0      0x44e /opt/microchip/xc32/v5.00/bin/bin/../../lib/gcc/pic32m/13.2.1/../../../../pic32m/lib/libc-musl.a(stdout.o)
 .debug_info    0x0000b9ee       0xef /opt/microchip/xc32/v5.00/bin/bin/../../lib/gcc/pic32m/13.2.1/../../../../pic32m/lib/libc-musl.a(atoi.o)
 .debug_info    0x0000badd      0x11e /opt/microchip/xc32/v5.00/bin/bin/../../lib/gcc/pic32m/13.2.1/../../../../pic32m/lib/libc-musl.a(tolower.o)
 .debug_info    0x0000bbfb      0x77d /opt/microchip/xc32/v5.00/bin/bin/../../lib/gcc/pic32m/13.2.1/../../../../pic32m/lib/libc-musl.a(__fmt_a.o)
 .debug_info    0x0000c378      0x36d /opt/microchip/xc32/v5.00/bin/bin/../../lib/gcc/pic32m/13.2.1/../../../../pic32m/lib/libc-musl.a(__fmt_d.o)
 .debug_info    0x0000c6e5      0x782 /opt/microchip/xc32/v5.00/bin/bin/../../lib/gcc/pic32m/13.2.1/../../../../pic32m/lib/libc-musl.a(__fmt_fp.o)
 .debug_info    0x0000ce67      0x33e /opt/microchip/xc32/v5.00/bin/bin/../../lib/gcc/pic32m/13.2.1/../../../../pic32m/lib/libc-musl.a(__fmt_o.o)
 .debug_info    0x0000d1a5      0x2dc /opt/microchip/xc32/v5.00/bin/bin/../../lib/gcc/pic32m/13.2.1/../../../../pic32m/lib/libc-musl.a(__fmt_s.o)
 .debug_info    0x0000d481      0x33e /opt/microchip/xc32/v5.00/bin/bin/../../lib/gcc/pic32m/13.2.1/../../../../pic32m/lib/libc-musl.a(__fmt_u.o)
 .debug_info    0x0000d7bf      0x34e /opt/microchip/xc32/v5.00/bin/bin/../../lib/gcc/pic32m/13.2.1/../../../../pic32m/lib/libc-musl.a(__fmt_x.o)
 .debug_info    0x0000db0d       0xbd /opt/microchip/xc32/v5.00/bin/bin/../../lib/gcc/pic32m/13.2.1/../../../../pic32m/lib/libc-musl.a(__init_stdio.o)
 .debug_info    0x0000dbca       0xaf /opt/microchip/xc32/v5.00/bin/bin/../../lib/gcc/pic32m/13.2.1/../../../../pic32m/lib/libc-musl.a(__io_file_needed.o)
 .debug_info    0x0000dc79      0x11e /opt/microchip/xc32/v5.00/bin/bin/../../lib/gcc/pic32m/13.2.1/../../../../pic32m/lib/libc-musl.a(toupper.o)
 .debug_info    0x0000dd97      0x1fa /opt/microchip/xc32/v5.00/bin/bin/../../lib/gcc/pic32m/13.2.1/../../../../pic32m/lib/libc-musl.a(__cvt_u.o)
 .debug_info    0x0000df91      0x6a6 /opt/microchip/xc32/v5.00/bin/bin/../../lib/gcc/pic32m/13.2.1/../../../../pic32m/lib/libm-musl.a(fma.o)
 .debug_info    0x0000e637      0x147 /opt/microchip/xc32/v5.00/bin/bin/../../lib/gcc/pic32m/13.2.1/../../../../pic32m/lib/libm-musl.a(scalbn.o)
 .debug_info    0x0000e77e       0x60 /opt/microchip/xc32/v5.00/bin/bin/../../lib/gcc/pic32m/13.2.1/../../../../pic32m/lib/libpic32.a(_exit.o)
 .debug_info    0x0000e7de      0x113 /opt/microchip/xc32/v5.00/bin/bin/../../lib/gcc/pic32m/13.2.1/../../../../pic32m/lib/libpic32.a(write.o)
 .debug_info    0x0000e8f1       0xc4 /opt/microchip/xc32/v5.00/bin/bin/../../lib/gcc/pic32m/13.2.1/../../../../pic32m/lib/libpic32.a(lseek.o)
 .debug_info    0x0000e9b5       0x9d /opt/microchip/xc32/v5.00/bin/bin/../../lib/gcc/pic32m/13.2.1/../../../../pic32m/lib/libpic32.a(close.o)
 .debug_info    0x0000ea52       0x41 /opt/microchip/xc32/v5.00/bin/bin/../../lib/gcc/pic32m/13.2.1/../../../../pic32m/lib/libpic32.a(errno.o)
 .debug_info    0x0000ea93       0xff /opt/microchip/xc32/v5.00/bin/bin/../../lib/gcc/pic32m/13.2.1/../../../../pic32m/lib/libc-size-musl.a(memcpy.o)
 .debug_info    0x0000eb92       0xc8 /opt/microchip/xc32/v5.00/bin/bin/../../lib/gcc/pic32m/13.2.1/../../../../pic32m/lib/libc-size-musl.a(memset.o)
 .debug_info    0x0000ec5a       0xa4 /opt/microchip/xc32/v5.00/bin/bin/../../lib/gcc/pic32m/13.2.1/../../../../pic32m/lib/libc-size-musl.a(strlen.o)
 .debug_info    0x0000ecfe       0xdd /opt/microchip/xc32/v5.00/bin/bin/../../lib/gcc/pic32m/13.2.1/../../../../pic32m/lib/libc-size-musl.a(strcpy.o)
 .debug_info    0x0000eddb       0xb3 /opt/microchip/xc32/v5.00/bin/bin/../../lib/gcc/pic32m/13.2.1/../../../../pic32m/lib/libc-size-musl.a(stpcpy.o)
 .debug_info    0x0000ee8e      0x2b4 /opt/microchip/xc32/v5.00/bin/bin/../../lib/gcc/pic32m/13.2.1/../../../../pic32m/lib/libe.a(_floatdidf.o)
 .debug_info    0x0000f142      0x1ab /opt/microchip/xc32/v5.00/bin/bin/../../lib/gcc/pic32m/13.2.1/libgcc.a(_lshrdi3.o)
 .debug_info    0x0000f2ed      0x1ab /opt/microchip/xc32/v5.00/bin/bin/../../lib/gcc/pic32m/13.2.1/libgcc.a(_ashldi3.o)
 .debug_info    0x0000f498      0x6c0 /opt/microchip/xc32/v5.00/bin/bin/../../lib/gcc/pic32m/13.2.1/libgcc.a(_udivdi3.o)
 .debug_info    0x0000fb58      0x743 /opt/microchip/xc32/v5.00/bin/bin/../../lib/gcc/pic32m/13.2.1/libgcc.a(_umoddi3.o)

.debug_abbrev   0x00000000     0x5ab4
 *.elf(.debug_abbrev)
 *(.debug_abbrev)
 .debug_abbrev  0x00000000       0xb7 build/default/production/FrameworkSource/ES_CheckEvents.o
 .debug_abbrev  0x000000b7       0xeb build/default/production/FrameworkSource/ES_DeferRecall.o
 .debug_abbrev  0x000001a2      0x1d8 build/default/production/FrameworkSource/ES_Framework.o
 .debug_abbrev  0x0000037a       0xb2 build/default/production/FrameworkSource/ES_LookupTables.o
 .debug_abbrev  0x0000042c      0x214 build/default/production/FrameworkSource/ES_Port.o
 .debug_abbrev  0x00000640       0x26 build/default/production/FrameworkSource/ES_PostList.o
 .debug_abbrev  0x00000666      0x10f build/default/production/FrameworkSource/ES_Queue.o
 .debug_abbrev  0x00000775      0x1e2 build/default/production/FrameworkSource/ES_Timers.o
 .debug_abbrev  0x00000957      0x1f4 build/default/production/FrameworkSource/terminal.o
 .debug_abbrev  0x00000b4b      0x173 build/default/production/FrameworkSource/circular_buffer_no_modulo_threadsafe.o
 .debug_abbrev  0x00000cbe      0x108 build/default/production/FrameworkSource/dbprintf.o
 .debug_abbrev  0x00000dc6      0x19c build/default/production/ProjectSource/EventCheckers.o
 .debug_abbrev  0x00000f62      0x133 build/default/production/ProjectSource/TestHarnessService0.o
 .debug_abbrev  0x00001095      0x121 build/default/production/ProjectSource/main.o
 .debug_abbrev  0x000011b6      0x15e build/default/production/ProjectSource/ADService.o
 .debug_abbrev  0x00001314      0x163 build/default/production/ProjectSource/PIC32_AD_Lib.o
 .debug_abbrev  0x00001477      0x2a0 build/default/production/ProjectSource/DCMotorService.o
 .debug_abbrev  0x00001717      0x251 build/default/production/ProjectSource/PIC32_SPI_HAL.o
 .debug_abbrev  0x00001968      0x2a1 build/default/production/ProjectSource/CommandRetrieveService.o
 .debug_abbrev  0x00001c09      0x1a3 build/default/production/ProjectSource/MainLogicFSM.o
 .debug_abbrev  0x00001dac       0xe2 build/default/production/ProjectSource/Ports.o
 .debug_abbrev  0x00001e8e      0x106 build/default/production/ProjectSource/CommonDefinitions.o
 .debug_abbrev  0x00001f94       0x98 /opt/microchip/xc32/v5.00/bin/bin/../../lib/gcc/pic32m/13.2.1/libgcc.a(floatunsisf.o)
 .debug_abbrev  0x0000202c       0x7d /opt/microchip/xc32/v5.00/bin/bin/../../lib/gcc/pic32m/13.2.1/../../../../pic32m/lib/libpic32.a(default-bootstrap-exception-handler.o)
 .debug_abbrev  0x000020a9       0x30 /opt/microchip/xc32/v5.00/bin/bin/../../lib/gcc/pic32m/13.2.1/../../../../pic32m/lib/libpic32.a(default-on-reset.o)
 .debug_abbrev  0x000020d9       0x30 /opt/microchip/xc32/v5.00/bin/bin/../../lib/gcc/pic32m/13.2.1/../../../../pic32m/lib/libpic32.a(default-on-bootstrap.o)
 .debug_abbrev  0x00002109       0x2e /opt/microchip/xc32/v5.00/bin/bin/../../lib/gcc/pic32m/13.2.1/../../../../pic32m/lib/libpic32.a(xc32_uart.o)
 .debug_abbrev  0x00002137       0x7d /opt/microchip/xc32/v5.00/bin/bin/../../lib/gcc/pic32m/13.2.1/../../../../pic32m/lib/libpic32.a(default-general-exception-handler.o)
 .debug_abbrev  0x000021b4       0x93 /opt/microchip/xc32/v5.00/bin/bin/../../lib/gcc/pic32m/13.2.1/../../../../pic32m/lib/libpic32.a(defaultinterrupt.o)
 .debug_abbrev  0x00002247       0xf5 /opt/microchip/xc32/v5.00/bin/bin/../../lib/gcc/pic32m/13.2.1/../../../../pic32m/lib/libc-musl.a(assert.o)
 .debug_abbrev  0x0000233c       0x7d /opt/microchip/xc32/v5.00/bin/bin/../../lib/gcc/pic32m/13.2.1/../../../../pic32m/lib/libc-musl.a(abort.o)
 .debug_abbrev  0x000023b9       0xfb /opt/microchip/xc32/v5.00/bin/bin/../../lib/gcc/pic32m/13.2.1/../../../../pic32m/lib/libc-musl.a(fprintf.o)
 .debug_abbrev  0x000024b4      0x199 /opt/microchip/xc32/v5.00/bin/bin/../../lib/gcc/pic32m/13.2.1/../../../../pic32m/lib/libc-musl.a(fflush.o)
 .debug_abbrev  0x0000264d      0x191 /opt/microchip/xc32/v5.00/bin/bin/../../lib/gcc/pic32m/13.2.1/../../../../pic32m/lib/libc-musl.a(vfprintf.o)
 .debug_abbrev  0x000027de      0x1ea /opt/microchip/xc32/v5.00/bin/bin/../../lib/gcc/pic32m/13.2.1/../../../../pic32m/lib/libc-musl.a(stderr.o)
 .debug_abbrev  0x000029c8       0xcf /opt/microchip/xc32/v5.00/bin/bin/../../lib/gcc/pic32m/13.2.1/../../../../pic32m/lib/libc-musl.a(putchar.o)
 .debug_abbrev  0x00002a97      0x15a /opt/microchip/xc32/v5.00/bin/bin/../../lib/gcc/pic32m/13.2.1/../../../../pic32m/lib/libc-musl.a(puts.o)
 .debug_abbrev  0x00002bf1       0x93 /opt/microchip/xc32/v5.00/bin/bin/../../lib/gcc/pic32m/13.2.1/../../../../pic32m/lib/libc-musl.a(_Exit.o)
 .debug_abbrev  0x00002c84      0x14c /opt/microchip/xc32/v5.00/bin/bin/../../lib/gcc/pic32m/13.2.1/../../../../pic32m/lib/libc-musl.a(fputs.o)
 .debug_abbrev  0x00002dd0       0x77 /opt/microchip/xc32/v5.00/bin/bin/../../lib/gcc/pic32m/13.2.1/../../../../pic32m/lib/libc-musl.a(__io_fmt_needed.o)
 .debug_abbrev  0x00002e47       0x9b /opt/microchip/xc32/v5.00/bin/bin/../../lib/gcc/pic32m/13.2.1/../../../../pic32m/lib/libc-musl.a(__io_init_needed.o)
 .debug_abbrev  0x00002ee2      0x19a /opt/microchip/xc32/v5.00/bin/bin/../../lib/gcc/pic32m/13.2.1/../../../../pic32m/lib/libc-musl.a(__out.o)
 .debug_abbrev  0x0000307c       0xc6 /opt/microchip/xc32/v5.00/bin/bin/../../lib/gcc/pic32m/13.2.1/../../../../pic32m/lib/libc-musl.a(__pop_float.o)
 .debug_abbrev  0x00003142       0xd7 /opt/microchip/xc32/v5.00/bin/bin/../../lib/gcc/pic32m/13.2.1/../../../../pic32m/lib/libc-musl.a(__pop_int.o)
 .debug_abbrev  0x00003219       0xda /opt/microchip/xc32/v5.00/bin/bin/../../lib/gcc/pic32m/13.2.1/../../../../pic32m/lib/libc-musl.a(__pop_ptr.o)
 .debug_abbrev  0x000032f3      0x343 /opt/microchip/xc32/v5.00/bin/bin/../../lib/gcc/pic32m/13.2.1/../../../../pic32m/lib/libc-musl.a(__printf_core.o)
 .debug_abbrev  0x00003636      0x17c /opt/microchip/xc32/v5.00/bin/bin/../../lib/gcc/pic32m/13.2.1/../../../../pic32m/lib/libc-musl.a(__stdio_close.o)
 .debug_abbrev  0x000037b2      0x149 /opt/microchip/xc32/v5.00/bin/bin/../../lib/gcc/pic32m/13.2.1/../../../../pic32m/lib/libc-musl.a(fwrite.o)
 .debug_abbrev  0x000038fb      0x16d /opt/microchip/xc32/v5.00/bin/bin/../../lib/gcc/pic32m/13.2.1/../../../../pic32m/lib/libc-musl.a(putc.o)
 .debug_abbrev  0x00003a68      0x1d6 /opt/microchip/xc32/v5.00/bin/bin/../../lib/gcc/pic32m/13.2.1/../../../../pic32m/lib/libc-musl.a(stdout.o)
 .debug_abbrev  0x00003c3e       0xc4 /opt/microchip/xc32/v5.00/bin/bin/../../lib/gcc/pic32m/13.2.1/../../../../pic32m/lib/libc-musl.a(atoi.o)
 .debug_abbrev  0x00003d02       0xf4 /opt/microchip/xc32/v5.00/bin/bin/../../lib/gcc/pic32m/13.2.1/../../../../pic32m/lib/libc-musl.a(tolower.o)
 .debug_abbrev  0x00003df6      0x1eb /opt/microchip/xc32/v5.00/bin/bin/../../lib/gcc/pic32m/13.2.1/../../../../pic32m/lib/libc-musl.a(__fmt_a.o)
 .debug_abbrev  0x00003fe1      0x16b /opt/microchip/xc32/v5.00/bin/bin/../../lib/gcc/pic32m/13.2.1/../../../../pic32m/lib/libc-musl.a(__fmt_d.o)
 .debug_abbrev  0x0000414c      0x1ee /opt/microchip/xc32/v5.00/bin/bin/../../lib/gcc/pic32m/13.2.1/../../../../pic32m/lib/libc-musl.a(__fmt_fp.o)
 .debug_abbrev  0x0000433a      0x16b /opt/microchip/xc32/v5.00/bin/bin/../../lib/gcc/pic32m/13.2.1/../../../../pic32m/lib/libc-musl.a(__fmt_o.o)
 .debug_abbrev  0x000044a5      0x15b /opt/microchip/xc32/v5.00/bin/bin/../../lib/gcc/pic32m/13.2.1/../../../../pic32m/lib/libc-musl.a(__fmt_s.o)
 .debug_abbrev  0x00004600      0x16b /opt/microchip/xc32/v5.00/bin/bin/../../lib/gcc/pic32m/13.2.1/../../../../pic32m/lib/libc-musl.a(__fmt_u.o)
 .debug_abbrev  0x0000476b      0x15a /opt/microchip/xc32/v5.00/bin/bin/../../lib/gcc/pic32m/13.2.1/../../../../pic32m/lib/libc-musl.a(__fmt_x.o)
 .debug_abbrev  0x000048c5       0x71 /opt/microchip/xc32/v5.00/bin/bin/../../lib/gcc/pic32m/13.2.1/../../../../pic32m/lib/libc-musl.a(__init_stdio.o)
 .debug_abbrev  0x00004936       0x6c /opt/microchip/xc32/v5.00/bin/bin/../../lib/gcc/pic32m/13.2.1/../../../../pic32m/lib/libc-musl.a(__io_file_needed.o)
 .debug_abbrev  0x000049a2       0xf4 /opt/microchip/xc32/v5.00/bin/bin/../../lib/gcc/pic32m/13.2.1/../../../../pic32m/lib/libc-musl.a(toupper.o)
 .debug_abbrev  0x00004a96       0xfe /opt/microchip/xc32/v5.00/bin/bin/../../lib/gcc/pic32m/13.2.1/../../../../pic32m/lib/libc-musl.a(__cvt_u.o)
 .debug_abbrev  0x00004b94      0x25c /opt/microchip/xc32/v5.00/bin/bin/../../lib/gcc/pic32m/13.2.1/../../../../pic32m/lib/libm-musl.a(fma.o)
 .debug_abbrev  0x00004df0       0xc7 /opt/microchip/xc32/v5.00/bin/bin/../../lib/gcc/pic32m/13.2.1/../../../../pic32m/lib/libm-musl.a(scalbn.o)
 .debug_abbrev  0x00004eb7       0x51 /opt/microchip/xc32/v5.00/bin/bin/../../lib/gcc/pic32m/13.2.1/../../../../pic32m/lib/libpic32.a(_exit.o)
 .debug_abbrev  0x00004f08       0xdd /opt/microchip/xc32/v5.00/bin/bin/../../lib/gcc/pic32m/13.2.1/../../../../pic32m/lib/libpic32.a(write.o)
 .debug_abbrev  0x00004fe5       0x7e /opt/microchip/xc32/v5.00/bin/bin/../../lib/gcc/pic32m/13.2.1/../../../../pic32m/lib/libpic32.a(lseek.o)
 .debug_abbrev  0x00005063       0x7c /opt/microchip/xc32/v5.00/bin/bin/../../lib/gcc/pic32m/13.2.1/../../../../pic32m/lib/libpic32.a(close.o)
 .debug_abbrev  0x000050df       0x3d /opt/microchip/xc32/v5.00/bin/bin/../../lib/gcc/pic32m/13.2.1/../../../../pic32m/lib/libpic32.a(errno.o)
 .debug_abbrev  0x0000511c       0xaa /opt/microchip/xc32/v5.00/bin/bin/../../lib/gcc/pic32m/13.2.1/../../../../pic32m/lib/libc-size-musl.a(memcpy.o)
 .debug_abbrev  0x000051c6       0x91 /opt/microchip/xc32/v5.00/bin/bin/../../lib/gcc/pic32m/13.2.1/../../../../pic32m/lib/libc-size-musl.a(memset.o)
 .debug_abbrev  0x00005257       0x91 /opt/microchip/xc32/v5.00/bin/bin/../../lib/gcc/pic32m/13.2.1/../../../../pic32m/lib/libc-size-musl.a(strlen.o)
 .debug_abbrev  0x000052e8       0xb5 /opt/microchip/xc32/v5.00/bin/bin/../../lib/gcc/pic32m/13.2.1/../../../../pic32m/lib/libc-size-musl.a(strcpy.o)
 .debug_abbrev  0x0000539d       0x6e /opt/microchip/xc32/v5.00/bin/bin/../../lib/gcc/pic32m/13.2.1/../../../../pic32m/lib/libc-size-musl.a(stpcpy.o)
 .debug_abbrev  0x0000540b      0x135 /opt/microchip/xc32/v5.00/bin/bin/../../lib/gcc/pic32m/13.2.1/../../../../pic32m/lib/libe.a(_floatdidf.o)
 .debug_abbrev  0x00005540      0x121 /opt/microchip/xc32/v5.00/bin/bin/../../lib/gcc/pic32m/13.2.1/libgcc.a(_lshrdi3.o)
 .debug_abbrev  0x00005661      0x121 /opt/microchip/xc32/v5.00/bin/bin/../../lib/gcc/pic32m/13.2.1/libgcc.a(_ashldi3.o)
 .debug_abbrev  0x00005782      0x198 /opt/microchip/xc32/v5.00/bin/bin/../../lib/gcc/pic32m/13.2.1/libgcc.a(_udivdi3.o)
 .debug_abbrev  0x0000591a      0x19a /opt/microchip/xc32/v5.00/bin/bin/../../lib/gcc/pic32m/13.2.1/libgcc.a(_umoddi3.o)

.debug_line     0x00000000     0x8f2b
 *.elf(.debug_line)
 *(.debug_line)
 .debug_line    0x00000000       0xfe build/default/production/FrameworkSource/ES_CheckEvents.o
 .debug_line    0x000000fe      0x106 build/default/production/FrameworkSource/ES_DeferRecall.o
 .debug_line    0x00000204      0x2db build/default/production/FrameworkSource/ES_Framework.o
 .debug_line    0x000004df       0xd1 build/default/production/FrameworkSource/ES_LookupTables.o
 .debug_line    0x000005b0      0x226 build/default/production/FrameworkSource/ES_Port.o
 .debug_line    0x000007d6       0x3e build/default/production/FrameworkSource/ES_PostList.o
 .debug_line    0x00000814      0x211 build/default/production/FrameworkSource/ES_Queue.o
 .debug_line    0x00000a25      0x249 build/default/production/FrameworkSource/ES_Timers.o
 .debug_line    0x00000c6e      0x213 build/default/production/FrameworkSource/terminal.o
 .debug_line    0x00000e81      0x207 build/default/production/FrameworkSource/circular_buffer_no_modulo_threadsafe.o
 .debug_line    0x00001088      0x1ed build/default/production/FrameworkSource/dbprintf.o
 .debug_line    0x00001275      0x1e4 build/default/production/ProjectSource/EventCheckers.o
 .debug_line    0x00001459      0x1a0 build/default/production/ProjectSource/TestHarnessService0.o
 .debug_line    0x000015f9       0xef build/default/production/ProjectSource/main.o
 .debug_line    0x000016e8      0x1ae build/default/production/ProjectSource/ADService.o
 .debug_line    0x00001896      0x183 build/default/production/ProjectSource/PIC32_AD_Lib.o
 .debug_line    0x00001a19      0x2b3 build/default/production/ProjectSource/DCMotorService.o
 .debug_line    0x00001ccc      0x57c build/default/production/ProjectSource/PIC32_SPI_HAL.o
 .debug_line    0x00002248      0x2f4 build/default/production/ProjectSource/CommandRetrieveService.o
 .debug_line    0x0000253c      0x385 build/default/production/ProjectSource/MainLogicFSM.o
 .debug_line    0x000028c1      0x12e build/default/production/ProjectSource/Ports.o
 .debug_line    0x000029ef       0xf1 build/default/production/ProjectSource/CommonDefinitions.o
 .debug_line    0x00002ae0       0xa6 /opt/microchip/xc32/v5.00/bin/bin/../../lib/gcc/pic32m/13.2.1/libgcc.a(floatunsisf.o)
 .debug_line    0x00002b86       0xe2 /opt/microchip/xc32/v5.00/bin/bin/../../lib/gcc/pic32m/13.2.1/../../../../pic32m/lib/libpic32.a(default-bootstrap-exception-handler.o)
 .debug_line    0x00002c68       0xa5 /opt/microchip/xc32/v5.00/bin/bin/../../lib/gcc/pic32m/13.2.1/../../../../pic32m/lib/libpic32.a(default-on-reset.o)
 .debug_line    0x00002d0d       0xa9 /opt/microchip/xc32/v5.00/bin/bin/../../lib/gcc/pic32m/13.2.1/../../../../pic32m/lib/libpic32.a(default-on-bootstrap.o)
 .debug_line    0x00002db6       0x8c /opt/microchip/xc32/v5.00/bin/bin/../../lib/gcc/pic32m/13.2.1/../../../../pic32m/lib/libpic32.a(xc32_uart.o)
 .debug_line    0x00002e42       0xe0 /opt/microchip/xc32/v5.00/bin/bin/../../lib/gcc/pic32m/13.2.1/../../../../pic32m/lib/libpic32.a(default-general-exception-handler.o)
 .debug_line    0x00002f22       0xd3 /opt/microchip/xc32/v5.00/bin/bin/../../lib/gcc/pic32m/13.2.1/../../../../pic32m/lib/libpic32.a(defaultinterrupt.o)
 .debug_line    0x00002ff5      0x148 /opt/microchip/xc32/v5.00/bin/bin/../../lib/gcc/pic32m/13.2.1/../../../../pic32m/lib/libc-musl.a(assert.o)
 .debug_line    0x0000313d      0x117 /opt/microchip/xc32/v5.00/bin/bin/../../lib/gcc/pic32m/13.2.1/../../../../pic32m/lib/libc-musl.a(abort.o)
 .debug_line    0x00003254      0x14a /opt/microchip/xc32/v5.00/bin/bin/../../lib/gcc/pic32m/13.2.1/../../../../pic32m/lib/libc-musl.a(fprintf.o)
 .debug_line    0x0000339e      0x19c /opt/microchip/xc32/v5.00/bin/bin/../../lib/gcc/pic32m/13.2.1/../../../../pic32m/lib/libc-musl.a(fflush.o)
 .debug_line    0x0000353a      0x1ce /opt/microchip/xc32/v5.00/bin/bin/../../lib/gcc/pic32m/13.2.1/../../../../pic32m/lib/libc-musl.a(vfprintf.o)
 .debug_line    0x00003708      0x1fc /opt/microchip/xc32/v5.00/bin/bin/../../lib/gcc/pic32m/13.2.1/../../../../pic32m/lib/libc-musl.a(stderr.o)
 .debug_line    0x00003904      0x12f /opt/microchip/xc32/v5.00/bin/bin/../../lib/gcc/pic32m/13.2.1/../../../../pic32m/lib/libc-musl.a(putchar.o)
 .debug_line    0x00003a33      0x1ce /opt/microchip/xc32/v5.00/bin/bin/../../lib/gcc/pic32m/13.2.1/../../../../pic32m/lib/libc-musl.a(puts.o)
 .debug_line    0x00003c01       0xa6 /opt/microchip/xc32/v5.00/bin/bin/../../lib/gcc/pic32m/13.2.1/../../../../pic32m/lib/libc-musl.a(_Exit.o)
 .debug_line    0x00003ca7      0x1d8 /opt/microchip/xc32/v5.00/bin/bin/../../lib/gcc/pic32m/13.2.1/../../../../pic32m/lib/libc-musl.a(fputs.o)
 .debug_line    0x00003e7f       0x99 /opt/microchip/xc32/v5.00/bin/bin/../../lib/gcc/pic32m/13.2.1/../../../../pic32m/lib/libc-musl.a(__io_fmt_needed.o)
 .debug_line    0x00003f18      0x10e /opt/microchip/xc32/v5.00/bin/bin/../../lib/gcc/pic32m/13.2.1/../../../../pic32m/lib/libc-musl.a(__io_init_needed.o)
 .debug_line    0x00004026      0x1d2 /opt/microchip/xc32/v5.00/bin/bin/../../lib/gcc/pic32m/13.2.1/../../../../pic32m/lib/libc-musl.a(__out.o)
 .debug_line    0x000041f8      0x158 /opt/microchip/xc32/v5.00/bin/bin/../../lib/gcc/pic32m/13.2.1/../../../../pic32m/lib/libc-musl.a(__pop_float.o)
 .debug_line    0x00004350      0x1d3 /opt/microchip/xc32/v5.00/bin/bin/../../lib/gcc/pic32m/13.2.1/../../../../pic32m/lib/libc-musl.a(__pop_int.o)
 .debug_line    0x00004523      0x1a0 /opt/microchip/xc32/v5.00/bin/bin/../../lib/gcc/pic32m/13.2.1/../../../../pic32m/lib/libc-musl.a(__pop_ptr.o)
 .debug_line    0x000046c3      0x6cd /opt/microchip/xc32/v5.00/bin/bin/../../lib/gcc/pic32m/13.2.1/../../../../pic32m/lib/libc-musl.a(__printf_core.o)
 .debug_line    0x00004d90      0x2a0 /opt/microchip/xc32/v5.00/bin/bin/../../lib/gcc/pic32m/13.2.1/../../../../pic32m/lib/libc-musl.a(__stdio_close.o)
 .debug_line    0x00005030      0x18e /opt/microchip/xc32/v5.00/bin/bin/../../lib/gcc/pic32m/13.2.1/../../../../pic32m/lib/libc-musl.a(fwrite.o)
 .debug_line    0x000051be      0x181 /opt/microchip/xc32/v5.00/bin/bin/../../lib/gcc/pic32m/13.2.1/../../../../pic32m/lib/libc-musl.a(putc.o)
 .debug_line    0x0000533f      0x1e2 /opt/microchip/xc32/v5.00/bin/bin/../../lib/gcc/pic32m/13.2.1/../../../../pic32m/lib/libc-musl.a(stdout.o)
 .debug_line    0x00005521      0x164 /opt/microchip/xc32/v5.00/bin/bin/../../lib/gcc/pic32m/13.2.1/../../../../pic32m/lib/libc-musl.a(atoi.o)
 .debug_line    0x00005685      0x156 /opt/microchip/xc32/v5.00/bin/bin/../../lib/gcc/pic32m/13.2.1/../../../../pic32m/lib/libc-musl.a(tolower.o)
 .debug_line    0x000057db      0x686 /opt/microchip/xc32/v5.00/bin/bin/../../lib/gcc/pic32m/13.2.1/../../../../pic32m/lib/libc-musl.a(__fmt_a.o)
 .debug_line    0x00005e61      0x20d /opt/microchip/xc32/v5.00/bin/bin/../../lib/gcc/pic32m/13.2.1/../../../../pic32m/lib/libc-musl.a(__fmt_d.o)
 .debug_line    0x0000606e      0x686 /opt/microchip/xc32/v5.00/bin/bin/../../lib/gcc/pic32m/13.2.1/../../../../pic32m/lib/libc-musl.a(__fmt_fp.o)
 .debug_line    0x000066f4      0x1af /opt/microchip/xc32/v5.00/bin/bin/../../lib/gcc/pic32m/13.2.1/../../../../pic32m/lib/libc-musl.a(__fmt_o.o)
 .debug_line    0x000068a3      0x1a3 /opt/microchip/xc32/v5.00/bin/bin/../../lib/gcc/pic32m/13.2.1/../../../../pic32m/lib/libc-musl.a(__fmt_s.o)
 .debug_line    0x00006a46      0x188 /opt/microchip/xc32/v5.00/bin/bin/../../lib/gcc/pic32m/13.2.1/../../../../pic32m/lib/libc-musl.a(__fmt_u.o)
 .debug_line    0x00006bce      0x2d7 /opt/microchip/xc32/v5.00/bin/bin/../../lib/gcc/pic32m/13.2.1/../../../../pic32m/lib/libc-musl.a(__fmt_x.o)
 .debug_line    0x00006ea5       0xcb /opt/microchip/xc32/v5.00/bin/bin/../../lib/gcc/pic32m/13.2.1/../../../../pic32m/lib/libc-musl.a(__init_stdio.o)
 .debug_line    0x00006f70       0x9a /opt/microchip/xc32/v5.00/bin/bin/../../lib/gcc/pic32m/13.2.1/../../../../pic32m/lib/libc-musl.a(__io_file_needed.o)
 .debug_line    0x0000700a      0x156 /opt/microchip/xc32/v5.00/bin/bin/../../lib/gcc/pic32m/13.2.1/../../../../pic32m/lib/libc-musl.a(toupper.o)
 .debug_line    0x00007160      0x1e5 /opt/microchip/xc32/v5.00/bin/bin/../../lib/gcc/pic32m/13.2.1/../../../../pic32m/lib/libc-musl.a(__cvt_u.o)
 .debug_line    0x00007345      0x642 /opt/microchip/xc32/v5.00/bin/bin/../../lib/gcc/pic32m/13.2.1/../../../../pic32m/lib/libm-musl.a(fma.o)
 .debug_line    0x00007987      0x135 /opt/microchip/xc32/v5.00/bin/bin/../../lib/gcc/pic32m/13.2.1/../../../../pic32m/lib/libm-musl.a(scalbn.o)
 .debug_line    0x00007abc       0x9f /opt/microchip/xc32/v5.00/bin/bin/../../lib/gcc/pic32m/13.2.1/../../../../pic32m/lib/libpic32.a(_exit.o)
 .debug_line    0x00007b5b       0xf2 /opt/microchip/xc32/v5.00/bin/bin/../../lib/gcc/pic32m/13.2.1/../../../../pic32m/lib/libpic32.a(write.o)
 .debug_line    0x00007c4d       0x9e /opt/microchip/xc32/v5.00/bin/bin/../../lib/gcc/pic32m/13.2.1/../../../../pic32m/lib/libpic32.a(lseek.o)
 .debug_line    0x00007ceb       0x9e /opt/microchip/xc32/v5.00/bin/bin/../../lib/gcc/pic32m/13.2.1/../../../../pic32m/lib/libpic32.a(close.o)
 .debug_line    0x00007d89       0xf8 /opt/microchip/xc32/v5.00/bin/bin/../../lib/gcc/pic32m/13.2.1/../../../../pic32m/lib/libpic32.a(errno.o)
 .debug_line    0x00007e81      0x16d /opt/microchip/xc32/v5.00/bin/bin/../../lib/gcc/pic32m/13.2.1/../../../../pic32m/lib/libc-size-musl.a(memcpy.o)
 .debug_line    0x00007fee      0x164 /opt/microchip/xc32/v5.00/bin/bin/../../lib/gcc/pic32m/13.2.1/../../../../pic32m/lib/libc-size-musl.a(memset.o)
 .debug_line    0x00008152      0x15f /opt/microchip/xc32/v5.00/bin/bin/../../lib/gcc/pic32m/13.2.1/../../../../pic32m/lib/libc-size-musl.a(strlen.o)
 .debug_line    0x000082b1       0xac /opt/microchip/xc32/v5.00/bin/bin/../../lib/gcc/pic32m/13.2.1/../../../../pic32m/lib/libc-size-musl.a(strcpy.o)
 .debug_line    0x0000835d      0x13c /opt/microchip/xc32/v5.00/bin/bin/../../lib/gcc/pic32m/13.2.1/../../../../pic32m/lib/libc-size-musl.a(stpcpy.o)
 .debug_line    0x00008499      0x322 /opt/microchip/xc32/v5.00/bin/bin/../../lib/gcc/pic32m/13.2.1/../../../../pic32m/lib/libe.a(_floatdidf.o)
 .debug_line    0x000087bb       0xcc /opt/microchip/xc32/v5.00/bin/bin/../../lib/gcc/pic32m/13.2.1/libgcc.a(_lshrdi3.o)
 .debug_line    0x00008887       0xcf /opt/microchip/xc32/v5.00/bin/bin/../../lib/gcc/pic32m/13.2.1/libgcc.a(_ashldi3.o)
 .debug_line    0x00008956      0x2c6 /opt/microchip/xc32/v5.00/bin/bin/../../lib/gcc/pic32m/13.2.1/libgcc.a(_udivdi3.o)
 .debug_line    0x00008c1c      0x30f /opt/microchip/xc32/v5.00/bin/bin/../../lib/gcc/pic32m/13.2.1/libgcc.a(_umoddi3.o)

.debug_frame    0x00000000     0x1d68
 *.elf(.debug_frame)
 *(.debug_frame)
 .debug_frame   0x00000000       0x34 build/default/production/FrameworkSource/ES_CheckEvents.o
 .debug_frame   0x00000034       0x34 build/default/production/FrameworkSource/ES_DeferRecall.o
 .debug_frame   0x00000068       0xc4 build/default/production/FrameworkSource/ES_Framework.o
 .debug_frame   0x0000012c       0x30 build/default/production/FrameworkSource/ES_LookupTables.o
 .debug_frame   0x0000015c      0x108 build/default/production/FrameworkSource/ES_Port.o
 .debug_frame   0x00000264       0xbc build/default/production/FrameworkSource/ES_Queue.o
 .debug_frame   0x00000320       0xfc build/default/production/FrameworkSource/ES_Timers.o
 .debug_frame   0x0000041c       0xfc build/default/production/FrameworkSource/terminal.o
 .debug_frame   0x00000518      0x188 build/default/production/FrameworkSource/circular_buffer_no_modulo_threadsafe.o
 .debug_frame   0x000006a0       0x58 build/default/production/FrameworkSource/dbprintf.o
 .debug_frame   0x000006f8       0x9c build/default/production/ProjectSource/EventCheckers.o
 .debug_frame   0x00000794       0x7c build/default/production/ProjectSource/TestHarnessService0.o
 .debug_frame   0x00000810       0x2c build/default/production/ProjectSource/main.o
 .debug_frame   0x0000083c       0x9c build/default/production/ProjectSource/ADService.o
 .debug_frame   0x000008d8       0x74 build/default/production/ProjectSource/PIC32_AD_Lib.o
 .debug_frame   0x0000094c      0x124 build/default/production/ProjectSource/DCMotorService.o
 .debug_frame   0x00000a70      0x3cc build/default/production/ProjectSource/PIC32_SPI_HAL.o
 .debug_frame   0x00000e3c       0xc0 build/default/production/ProjectSource/CommandRetrieveService.o
 .debug_frame   0x00000efc      0x204 build/default/production/ProjectSource/MainLogicFSM.o
 .debug_frame   0x00001100       0xd0 build/default/production/ProjectSource/Ports.o
 .debug_frame   0x000011d0       0x58 build/default/production/ProjectSource/CommonDefinitions.o
 .debug_frame   0x00001228       0x2c /opt/microchip/xc32/v5.00/bin/bin/../../lib/gcc/pic32m/13.2.1/libgcc.a(floatunsisf.o)
 .debug_frame   0x00001254       0x2c /opt/microchip/xc32/v5.00/bin/bin/../../lib/gcc/pic32m/13.2.1/../../../../pic32m/lib/libpic32.a(default-bootstrap-exception-handler.o)
 .debug_frame   0x00001280       0x20 /opt/microchip/xc32/v5.00/bin/bin/../../lib/gcc/pic32m/13.2.1/../../../../pic32m/lib/libpic32.a(default-on-reset.o)
 .debug_frame   0x000012a0       0x20 /opt/microchip/xc32/v5.00/bin/bin/../../lib/gcc/pic32m/13.2.1/../../../../pic32m/lib/libpic32.a(default-on-bootstrap.o)
 .debug_frame   0x000012c0       0x2c /opt/microchip/xc32/v5.00/bin/bin/../../lib/gcc/pic32m/13.2.1/../../../../pic32m/lib/libpic32.a(default-general-exception-handler.o)
 .debug_frame   0x000012ec       0x20 /opt/microchip/xc32/v5.00/bin/bin/../../lib/gcc/pic32m/13.2.1/../../../../pic32m/lib/libpic32.a(defaultinterrupt.o)
 .debug_frame   0x0000130c       0x28 /opt/microchip/xc32/v5.00/bin/bin/../../lib/gcc/pic32m/13.2.1/../../../../pic32m/lib/libc-musl.a(assert.o)
 .debug_frame   0x00001334       0x28 /opt/microchip/xc32/v5.00/bin/bin/../../lib/gcc/pic32m/13.2.1/../../../../pic32m/lib/libc-musl.a(abort.o)
 .debug_frame   0x0000135c       0x2c /opt/microchip/xc32/v5.00/bin/bin/../../lib/gcc/pic32m/13.2.1/../../../../pic32m/lib/libc-musl.a(fprintf.o)
 .debug_frame   0x00001388       0x50 /opt/microchip/xc32/v5.00/bin/bin/../../lib/gcc/pic32m/13.2.1/../../../../pic32m/lib/libc-musl.a(fflush.o)
 .debug_frame   0x000013d8       0x3c /opt/microchip/xc32/v5.00/bin/bin/../../lib/gcc/pic32m/13.2.1/../../../../pic32m/lib/libc-musl.a(vfprintf.o)
 .debug_frame   0x00001414       0x5c /opt/microchip/xc32/v5.00/bin/bin/../../lib/gcc/pic32m/13.2.1/../../../../pic32m/lib/libc-musl.a(stderr.o)
 .debug_frame   0x00001470       0x20 /opt/microchip/xc32/v5.00/bin/bin/../../lib/gcc/pic32m/13.2.1/../../../../pic32m/lib/libc-musl.a(putchar.o)
 .debug_frame   0x00001490       0x2c /opt/microchip/xc32/v5.00/bin/bin/../../lib/gcc/pic32m/13.2.1/../../../../pic32m/lib/libc-musl.a(puts.o)
 .debug_frame   0x000014bc       0x28 /opt/microchip/xc32/v5.00/bin/bin/../../lib/gcc/pic32m/13.2.1/../../../../pic32m/lib/libc-musl.a(_Exit.o)
 .debug_frame   0x000014e4       0x30 /opt/microchip/xc32/v5.00/bin/bin/../../lib/gcc/pic32m/13.2.1/../../../../pic32m/lib/libc-musl.a(fputs.o)
 .debug_frame   0x00001514       0x2c /opt/microchip/xc32/v5.00/bin/bin/../../lib/gcc/pic32m/13.2.1/../../../../pic32m/lib/libc-musl.a(__io_fmt_needed.o)
 .debug_frame   0x00001540       0x30 /opt/microchip/xc32/v5.00/bin/bin/../../lib/gcc/pic32m/13.2.1/../../../../pic32m/lib/libc-musl.a(__io_init_needed.o)
 .debug_frame   0x00001570       0x44 /opt/microchip/xc32/v5.00/bin/bin/../../lib/gcc/pic32m/13.2.1/../../../../pic32m/lib/libc-musl.a(__out.o)
 .debug_frame   0x000015b4       0x20 /opt/microchip/xc32/v5.00/bin/bin/../../lib/gcc/pic32m/13.2.1/../../../../pic32m/lib/libc-musl.a(__pop_float.o)
 .debug_frame   0x000015d4       0x20 /opt/microchip/xc32/v5.00/bin/bin/../../lib/gcc/pic32m/13.2.1/../../../../pic32m/lib/libc-musl.a(__pop_int.o)
 .debug_frame   0x000015f4       0x20 /opt/microchip/xc32/v5.00/bin/bin/../../lib/gcc/pic32m/13.2.1/../../../../pic32m/lib/libc-musl.a(__pop_ptr.o)
 .debug_frame   0x00001614       0xc8 /opt/microchip/xc32/v5.00/bin/bin/../../lib/gcc/pic32m/13.2.1/../../../../pic32m/lib/libc-musl.a(__printf_core.o)
 .debug_frame   0x000016dc       0x64 /opt/microchip/xc32/v5.00/bin/bin/../../lib/gcc/pic32m/13.2.1/../../../../pic32m/lib/libc-musl.a(__stdio_close.o)
 .debug_frame   0x00001740       0x44 /opt/microchip/xc32/v5.00/bin/bin/../../lib/gcc/pic32m/13.2.1/../../../../pic32m/lib/libc-musl.a(fwrite.o)
 .debug_frame   0x00001784       0x4c /opt/microchip/xc32/v5.00/bin/bin/../../lib/gcc/pic32m/13.2.1/../../../../pic32m/lib/libc-musl.a(putc.o)
 .debug_frame   0x000017d0       0x40 /opt/microchip/xc32/v5.00/bin/bin/../../lib/gcc/pic32m/13.2.1/../../../../pic32m/lib/libc-musl.a(stdout.o)
 .debug_frame   0x00001810       0x20 /opt/microchip/xc32/v5.00/bin/bin/../../lib/gcc/pic32m/13.2.1/../../../../pic32m/lib/libc-musl.a(atoi.o)
 .debug_frame   0x00001830       0x30 /opt/microchip/xc32/v5.00/bin/bin/../../lib/gcc/pic32m/13.2.1/../../../../pic32m/lib/libc-musl.a(tolower.o)
 .debug_frame   0x00001860       0x44 /opt/microchip/xc32/v5.00/bin/bin/../../lib/gcc/pic32m/13.2.1/../../../../pic32m/lib/libc-musl.a(__fmt_a.o)
 .debug_frame   0x000018a4       0x38 /opt/microchip/xc32/v5.00/bin/bin/../../lib/gcc/pic32m/13.2.1/../../../../pic32m/lib/libc-musl.a(__fmt_d.o)
 .debug_frame   0x000018dc       0x44 /opt/microchip/xc32/v5.00/bin/bin/../../lib/gcc/pic32m/13.2.1/../../../../pic32m/lib/libc-musl.a(__fmt_fp.o)
 .debug_frame   0x00001920       0x34 /opt/microchip/xc32/v5.00/bin/bin/../../lib/gcc/pic32m/13.2.1/../../../../pic32m/lib/libc-musl.a(__fmt_o.o)
 .debug_frame   0x00001954       0x38 /opt/microchip/xc32/v5.00/bin/bin/../../lib/gcc/pic32m/13.2.1/../../../../pic32m/lib/libc-musl.a(__fmt_s.o)
 .debug_frame   0x0000198c       0x34 /opt/microchip/xc32/v5.00/bin/bin/../../lib/gcc/pic32m/13.2.1/../../../../pic32m/lib/libc-musl.a(__fmt_u.o)
 .debug_frame   0x000019c0       0x44 /opt/microchip/xc32/v5.00/bin/bin/../../lib/gcc/pic32m/13.2.1/../../../../pic32m/lib/libc-musl.a(__fmt_x.o)
 .debug_frame   0x00001a04       0x3c /opt/microchip/xc32/v5.00/bin/bin/../../lib/gcc/pic32m/13.2.1/../../../../pic32m/lib/libc-musl.a(__init_stdio.o)
 .debug_frame   0x00001a40       0x20 /opt/microchip/xc32/v5.00/bin/bin/../../lib/gcc/pic32m/13.2.1/../../../../pic32m/lib/libc-musl.a(__io_file_needed.o)
 .debug_frame   0x00001a60       0x30 /opt/microchip/xc32/v5.00/bin/bin/../../lib/gcc/pic32m/13.2.1/../../../../pic32m/lib/libc-musl.a(toupper.o)
 .debug_frame   0x00001a90       0x40 /opt/microchip/xc32/v5.00/bin/bin/../../lib/gcc/pic32m/13.2.1/../../../../pic32m/lib/libc-musl.a(__cvt_u.o)
 .debug_frame   0x00001ad0       0x78 /opt/microchip/xc32/v5.00/bin/bin/../../lib/gcc/pic32m/13.2.1/../../../../pic32m/lib/libm-musl.a(fma.o)
 .debug_frame   0x00001b48       0x34 /opt/microchip/xc32/v5.00/bin/bin/../../lib/gcc/pic32m/13.2.1/../../../../pic32m/lib/libm-musl.a(scalbn.o)
 .debug_frame   0x00001b7c       0x20 /opt/microchip/xc32/v5.00/bin/bin/../../lib/gcc/pic32m/13.2.1/../../../../pic32m/lib/libpic32.a(_exit.o)
 .debug_frame   0x00001b9c       0x40 /opt/microchip/xc32/v5.00/bin/bin/../../lib/gcc/pic32m/13.2.1/../../../../pic32m/lib/libpic32.a(write.o)
 .debug_frame   0x00001bdc       0x20 /opt/microchip/xc32/v5.00/bin/bin/../../lib/gcc/pic32m/13.2.1/../../../../pic32m/lib/libpic32.a(lseek.o)
 .debug_frame   0x00001bfc       0x20 /opt/microchip/xc32/v5.00/bin/bin/../../lib/gcc/pic32m/13.2.1/../../../../pic32m/lib/libpic32.a(close.o)
 .debug_frame   0x00001c1c       0x20 /opt/microchip/xc32/v5.00/bin/bin/../../lib/gcc/pic32m/13.2.1/../../../../pic32m/lib/libc-size-musl.a(memcpy.o)
 .debug_frame   0x00001c3c       0x20 /opt/microchip/xc32/v5.00/bin/bin/../../lib/gcc/pic32m/13.2.1/../../../../pic32m/lib/libc-size-musl.a(memset.o)
 .debug_frame   0x00001c5c       0x20 /opt/microchip/xc32/v5.00/bin/bin/../../lib/gcc/pic32m/13.2.1/../../../../pic32m/lib/libc-size-musl.a(strlen.o)
 .debug_frame   0x00001c7c       0x2c /opt/microchip/xc32/v5.00/bin/bin/../../lib/gcc/pic32m/13.2.1/../../../../pic32m/lib/libc-size-musl.a(strcpy.o)
 .debug_frame   0x00001ca8       0x20 /opt/microchip/xc32/v5.00/bin/bin/../../lib/gcc/pic32m/13.2.1/../../../../pic32m/lib/libc-size-musl.a(stpcpy.o)
 .debug_frame   0x00001cc8       0x20 /opt/microchip/xc32/v5.00/bin/bin/../../lib/gcc/pic32m/13.2.1/../../../../pic32m/lib/libe.a(_floatdidf.o)
 .debug_frame   0x00001ce8       0x20 /opt/microchip/xc32/v5.00/bin/bin/../../lib/gcc/pic32m/13.2.1/libgcc.a(_lshrdi3.o)
 .debug_frame   0x00001d08       0x20 /opt/microchip/xc32/v5.00/bin/bin/../../lib/gcc/pic32m/13.2.1/libgcc.a(_ashldi3.o)
 .debug_frame   0x00001d28       0x20 /opt/microchip/xc32/v5.00/bin/bin/../../lib/gcc/pic32m/13.2.1/libgcc.a(_udivdi3.o)
 .debug_frame   0x00001d48       0x20 /opt/microchip/xc32/v5.00/bin/bin/../../lib/gcc/pic32m/13.2.1/libgcc.a(_umoddi3.o)

.debug_str      0x00000000     0x4f9e
 *.elf(.debug_str)
 *(.debug_str)
 .debug_str     0x00000000     0x4f9e build/default/production/FrameworkSource/ES_CheckEvents.o
                                0x2f0 (size before relaxing)
 .debug_str     0x00004f9e      0x410 build/default/production/FrameworkSource/ES_DeferRecall.o
 .debug_str     0x00004f9e      0x6e5 build/default/production/FrameworkSource/ES_Framework.o
 .debug_str     0x00004f9e      0x310 build/default/production/FrameworkSource/ES_LookupTables.o
 .debug_str     0x00004f9e      0x6ce build/default/production/FrameworkSource/ES_Port.o
 .debug_str     0x00004f9e      0x2a3 build/default/production/FrameworkSource/ES_PostList.o
 .debug_str     0x00004f9e      0x4a0 build/default/production/FrameworkSource/ES_Queue.o
 .debug_str     0x00004f9e      0x5fa build/default/production/FrameworkSource/ES_Timers.o
 .debug_str     0x00004f9e      0x66a build/default/production/FrameworkSource/terminal.o
 .debug_str     0x00004f9e      0x3f0 build/default/production/FrameworkSource/circular_buffer_no_modulo_threadsafe.o
 .debug_str     0x00004f9e      0x31b build/default/production/FrameworkSource/dbprintf.o
 .debug_str     0x00004f9e      0x5cd build/default/production/ProjectSource/EventCheckers.o
 .debug_str     0x00004f9e      0x4a2 build/default/production/ProjectSource/TestHarnessService0.o
 .debug_str     0x00004f9e      0x3b6 build/default/production/ProjectSource/main.o
 .debug_str     0x00004f9e      0x50d build/default/production/ProjectSource/ADService.o
 .debug_str     0x00004f9e      0x4d7 build/default/production/ProjectSource/PIC32_AD_Lib.o
 .debug_str     0x00004f9e      0x744 build/default/production/ProjectSource/DCMotorService.o
 .debug_str     0x00004f9e      0xc0c build/default/production/ProjectSource/PIC32_SPI_HAL.o
 .debug_str     0x00004f9e      0xa81 build/default/production/ProjectSource/CommandRetrieveService.o
 .debug_str     0x00004f9e      0x6d0 build/default/production/ProjectSource/MainLogicFSM.o
 .debug_str     0x00004f9e      0x4b5 build/default/production/ProjectSource/Ports.o
 .debug_str     0x00004f9e      0x2f1 build/default/production/ProjectSource/CommonDefinitions.o
 .debug_str     0x00004f9e      0x26b /opt/microchip/xc32/v5.00/bin/bin/../../lib/gcc/pic32m/13.2.1/libgcc.a(floatunsisf.o)
 .debug_str     0x00004f9e      0x318 /opt/microchip/xc32/v5.00/bin/bin/../../lib/gcc/pic32m/13.2.1/../../../../pic32m/lib/libpic32.a(default-bootstrap-exception-handler.o)
 .debug_str     0x00004f9e      0x2b7 /opt/microchip/xc32/v5.00/bin/bin/../../lib/gcc/pic32m/13.2.1/../../../../pic32m/lib/libpic32.a(default-on-reset.o)
 .debug_str     0x00004f9e      0x2bf /opt/microchip/xc32/v5.00/bin/bin/../../lib/gcc/pic32m/13.2.1/../../../../pic32m/lib/libpic32.a(default-on-bootstrap.o)
 .debug_str     0x00004f9e      0x2b0 /opt/microchip/xc32/v5.00/bin/bin/../../lib/gcc/pic32m/13.2.1/../../../../pic32m/lib/libpic32.a(xc32_uart.o)
 .debug_str     0x00004f9e      0x314 /opt/microchip/xc32/v5.00/bin/bin/../../lib/gcc/pic32m/13.2.1/../../../../pic32m/lib/libpic32.a(default-general-exception-handler.o)
 .debug_str     0x00004f9e      0x349 /opt/microchip/xc32/v5.00/bin/bin/../../lib/gcc/pic32m/13.2.1/../../../../pic32m/lib/libpic32.a(defaultinterrupt.o)
 .debug_str     0x00004f9e      0x2ab /opt/microchip/xc32/v5.00/bin/bin/../../lib/gcc/pic32m/13.2.1/../../../../pic32m/lib/libc-musl.a(assert.o)
 .debug_str     0x00004f9e      0x259 /opt/microchip/xc32/v5.00/bin/bin/../../lib/gcc/pic32m/13.2.1/../../../../pic32m/lib/libc-musl.a(abort.o)
 .debug_str     0x00004f9e      0x29a /opt/microchip/xc32/v5.00/bin/bin/../../lib/gcc/pic32m/13.2.1/../../../../pic32m/lib/libc-musl.a(fprintf.o)
 .debug_str     0x00004f9e      0x329 /opt/microchip/xc32/v5.00/bin/bin/../../lib/gcc/pic32m/13.2.1/../../../../pic32m/lib/libc-musl.a(fflush.o)
 .debug_str     0x00004f9e      0x3aa /opt/microchip/xc32/v5.00/bin/bin/../../lib/gcc/pic32m/13.2.1/../../../../pic32m/lib/libc-musl.a(vfprintf.o)
 .debug_str     0x00004f9e      0x3ec /opt/microchip/xc32/v5.00/bin/bin/../../lib/gcc/pic32m/13.2.1/../../../../pic32m/lib/libc-musl.a(stderr.o)
 .debug_str     0x00004f9e      0x276 /opt/microchip/xc32/v5.00/bin/bin/../../lib/gcc/pic32m/13.2.1/../../../../pic32m/lib/libc-musl.a(putchar.o)
 .debug_str     0x00004f9e      0x36c /opt/microchip/xc32/v5.00/bin/bin/../../lib/gcc/pic32m/13.2.1/../../../../pic32m/lib/libc-musl.a(puts.o)
 .debug_str     0x00004f9e      0x275 /opt/microchip/xc32/v5.00/bin/bin/../../lib/gcc/pic32m/13.2.1/../../../../pic32m/lib/libc-musl.a(_Exit.o)
 .debug_str     0x00004f9e      0x360 /opt/microchip/xc32/v5.00/bin/bin/../../lib/gcc/pic32m/13.2.1/../../../../pic32m/lib/libc-musl.a(fputs.o)
 .debug_str     0x00004f9e      0x35e /opt/microchip/xc32/v5.00/bin/bin/../../lib/gcc/pic32m/13.2.1/../../../../pic32m/lib/libc-musl.a(__io_fmt_needed.o)
 .debug_str     0x00004f9e      0x2fc /opt/microchip/xc32/v5.00/bin/bin/../../lib/gcc/pic32m/13.2.1/../../../../pic32m/lib/libc-musl.a(__io_init_needed.o)
 .debug_str     0x00004f9e      0x30a /opt/microchip/xc32/v5.00/bin/bin/../../lib/gcc/pic32m/13.2.1/../../../../pic32m/lib/libc-musl.a(__out.o)
 .debug_str     0x00004f9e      0x2eb /opt/microchip/xc32/v5.00/bin/bin/../../lib/gcc/pic32m/13.2.1/../../../../pic32m/lib/libc-musl.a(__pop_float.o)
 .debug_str     0x00004f9e      0x2f6 /opt/microchip/xc32/v5.00/bin/bin/../../lib/gcc/pic32m/13.2.1/../../../../pic32m/lib/libc-musl.a(__pop_int.o)
 .debug_str     0x00004f9e      0x2f8 /opt/microchip/xc32/v5.00/bin/bin/../../lib/gcc/pic32m/13.2.1/../../../../pic32m/lib/libc-musl.a(__pop_ptr.o)
 .debug_str     0x00004f9e      0x40c /opt/microchip/xc32/v5.00/bin/bin/../../lib/gcc/pic32m/13.2.1/../../../../pic32m/lib/libc-musl.a(__printf_core.o)
 .debug_str     0x00004f9e      0x385 /opt/microchip/xc32/v5.00/bin/bin/../../lib/gcc/pic32m/13.2.1/../../../../pic32m/lib/libc-musl.a(__stdio_close.o)
 .debug_str     0x00004f9e      0x303 /opt/microchip/xc32/v5.00/bin/bin/../../lib/gcc/pic32m/13.2.1/../../../../pic32m/lib/libc-musl.a(fwrite.o)
 .debug_str     0x00004f9e      0x312 /opt/microchip/xc32/v5.00/bin/bin/../../lib/gcc/pic32m/13.2.1/../../../../pic32m/lib/libc-musl.a(putc.o)
 .debug_str     0x00004f9e      0x3ec /opt/microchip/xc32/v5.00/bin/bin/../../lib/gcc/pic32m/13.2.1/../../../../pic32m/lib/libc-musl.a(stdout.o)
 .debug_str     0x00004f9e      0x256 /opt/microchip/xc32/v5.00/bin/bin/../../lib/gcc/pic32m/13.2.1/../../../../pic32m/lib/libc-musl.a(atoi.o)
 .debug_str     0x00004f9e      0x283 /opt/microchip/xc32/v5.00/bin/bin/../../lib/gcc/pic32m/13.2.1/../../../../pic32m/lib/libc-musl.a(tolower.o)
 .debug_str     0x00004f9e      0x3a1 /opt/microchip/xc32/v5.00/bin/bin/../../lib/gcc/pic32m/13.2.1/../../../../pic32m/lib/libc-musl.a(__fmt_a.o)
 .debug_str     0x00004f9e      0x31d /opt/microchip/xc32/v5.00/bin/bin/../../lib/gcc/pic32m/13.2.1/../../../../pic32m/lib/libc-musl.a(__fmt_d.o)
 .debug_str     0x00004f9e      0x3c9 /opt/microchip/xc32/v5.00/bin/bin/../../lib/gcc/pic32m/13.2.1/../../../../pic32m/lib/libc-musl.a(__fmt_fp.o)
 .debug_str     0x00004f9e      0x31d /opt/microchip/xc32/v5.00/bin/bin/../../lib/gcc/pic32m/13.2.1/../../../../pic32m/lib/libc-musl.a(__fmt_o.o)
 .debug_str     0x00004f9e      0x309 /opt/microchip/xc32/v5.00/bin/bin/../../lib/gcc/pic32m/13.2.1/../../../../pic32m/lib/libc-musl.a(__fmt_s.o)
 .debug_str     0x00004f9e      0x31d /opt/microchip/xc32/v5.00/bin/bin/../../lib/gcc/pic32m/13.2.1/../../../../pic32m/lib/libc-musl.a(__fmt_u.o)
 .debug_str     0x00004f9e      0x31d /opt/microchip/xc32/v5.00/bin/bin/../../lib/gcc/pic32m/13.2.1/../../../../pic32m/lib/libc-musl.a(__fmt_x.o)
 .debug_str     0x00004f9e      0x2c2 /opt/microchip/xc32/v5.00/bin/bin/../../lib/gcc/pic32m/13.2.1/../../../../pic32m/lib/libc-musl.a(__init_stdio.o)
 .debug_str     0x00004f9e      0x2cf /opt/microchip/xc32/v5.00/bin/bin/../../lib/gcc/pic32m/13.2.1/../../../../pic32m/lib/libc-musl.a(__io_file_needed.o)
 .debug_str     0x00004f9e      0x283 /opt/microchip/xc32/v5.00/bin/bin/../../lib/gcc/pic32m/13.2.1/../../../../pic32m/lib/libc-musl.a(toupper.o)
 .debug_str     0x00004f9e      0x2ed /opt/microchip/xc32/v5.00/bin/bin/../../lib/gcc/pic32m/13.2.1/../../../../pic32m/lib/libc-musl.a(__cvt_u.o)
 .debug_str     0x00004f9e      0x34c /opt/microchip/xc32/v5.00/bin/bin/../../lib/gcc/pic32m/13.2.1/../../../../pic32m/lib/libm-musl.a(fma.o)
 .debug_str     0x00004f9e      0x2af /opt/microchip/xc32/v5.00/bin/bin/../../lib/gcc/pic32m/13.2.1/../../../../pic32m/lib/libm-musl.a(scalbn.o)
 .debug_str     0x00004f9e      0x2af /opt/microchip/xc32/v5.00/bin/bin/../../lib/gcc/pic32m/13.2.1/../../../../pic32m/lib/libpic32.a(_exit.o)
 .debug_str     0x00004f9e      0x2f4 /opt/microchip/xc32/v5.00/bin/bin/../../lib/gcc/pic32m/13.2.1/../../../../pic32m/lib/libpic32.a(write.o)
 .debug_str     0x00004f9e      0x357 /opt/microchip/xc32/v5.00/bin/bin/../../lib/gcc/pic32m/13.2.1/../../../../pic32m/lib/libpic32.a(lseek.o)
 .debug_str     0x00004f9e      0x340 /opt/microchip/xc32/v5.00/bin/bin/../../lib/gcc/pic32m/13.2.1/../../../../pic32m/lib/libpic32.a(close.o)
 .debug_str     0x00004f9e      0x2a8 /opt/microchip/xc32/v5.00/bin/bin/../../lib/gcc/pic32m/13.2.1/../../../../pic32m/lib/libpic32.a(errno.o)
 .debug_str     0x00004f9e      0x276 /opt/microchip/xc32/v5.00/bin/bin/../../lib/gcc/pic32m/13.2.1/../../../../pic32m/lib/libc-size-musl.a(memcpy.o)
 .debug_str     0x00004f9e      0x262 /opt/microchip/xc32/v5.00/bin/bin/../../lib/gcc/pic32m/13.2.1/../../../../pic32m/lib/libc-size-musl.a(memset.o)
 .debug_str     0x00004f9e      0x251 /opt/microchip/xc32/v5.00/bin/bin/../../lib/gcc/pic32m/13.2.1/../../../../pic32m/lib/libc-size-musl.a(strlen.o)
 .debug_str     0x00004f9e      0x25e /opt/microchip/xc32/v5.00/bin/bin/../../lib/gcc/pic32m/13.2.1/../../../../pic32m/lib/libc-size-musl.a(strcpy.o)
 .debug_str     0x00004f9e      0x272 /opt/microchip/xc32/v5.00/bin/bin/../../lib/gcc/pic32m/13.2.1/../../../../pic32m/lib/libc-size-musl.a(stpcpy.o)
 .debug_str     0x00004f9e      0x32c /opt/microchip/xc32/v5.00/bin/bin/../../lib/gcc/pic32m/13.2.1/../../../../pic32m/lib/libe.a(_floatdidf.o)
 .debug_str     0x00004f9e      0x2f7 /opt/microchip/xc32/v5.00/bin/bin/../../lib/gcc/pic32m/13.2.1/libgcc.a(_lshrdi3.o)
 .debug_str     0x00004f9e      0x2f7 /opt/microchip/xc32/v5.00/bin/bin/../../lib/gcc/pic32m/13.2.1/libgcc.a(_ashldi3.o)
 .debug_str     0x00004f9e      0x334 /opt/microchip/xc32/v5.00/bin/bin/../../lib/gcc/pic32m/13.2.1/libgcc.a(_udivdi3.o)
 .debug_str     0x00004f9e      0x334 /opt/microchip/xc32/v5.00/bin/bin/../../lib/gcc/pic32m/13.2.1/libgcc.a(_umoddi3.o)

.debug_loc      0x00000000     0x8ad9
 *.elf(.debug_loc)
 *(.debug_loc)
 .debug_loc     0x00000000       0x44 build/default/production/FrameworkSource/ES_CheckEvents.o
 .debug_loc     0x00000044       0x44 build/default/production/FrameworkSource/ES_DeferRecall.o
 .debug_loc     0x00000088      0x154 build/default/production/FrameworkSource/ES_Framework.o
 .debug_loc     0x000001dc       0x44 build/default/production/FrameworkSource/ES_LookupTables.o
 .debug_loc     0x00000220      0x198 build/default/production/FrameworkSource/ES_Port.o
 .debug_loc     0x000003b8      0x154 build/default/production/FrameworkSource/ES_Queue.o
 .debug_loc     0x0000050c      0x1dc build/default/production/FrameworkSource/ES_Timers.o
 .debug_loc     0x000006e8      0x1c4 build/default/production/FrameworkSource/terminal.o
 .debug_loc     0x000008ac      0x2ec build/default/production/FrameworkSource/circular_buffer_no_modulo_threadsafe.o
 .debug_loc     0x00000b98       0x8b build/default/production/FrameworkSource/dbprintf.o
 .debug_loc     0x00000c23      0x110 build/default/production/ProjectSource/EventCheckers.o
 .debug_loc     0x00000d33       0xcc build/default/production/ProjectSource/TestHarnessService0.o
 .debug_loc     0x00000dff       0x2c build/default/production/ProjectSource/main.o
 .debug_loc     0x00000e2b      0x110 build/default/production/ProjectSource/ADService.o
 .debug_loc     0x00000f3b       0xcc build/default/production/ProjectSource/PIC32_AD_Lib.o
 .debug_loc     0x00001007      0x220 build/default/production/ProjectSource/DCMotorService.o
 .debug_loc     0x00001227      0x770 build/default/production/ProjectSource/PIC32_SPI_HAL.o
 .debug_loc     0x00001997      0x157 build/default/production/ProjectSource/CommandRetrieveService.o
 .debug_loc     0x00001aee      0x3b8 build/default/production/ProjectSource/MainLogicFSM.o
 .debug_loc     0x00001ea6      0x198 build/default/production/ProjectSource/Ports.o
 .debug_loc     0x0000203e       0x88 build/default/production/ProjectSource/CommonDefinitions.o
 .debug_loc     0x000020c6       0xbc /opt/microchip/xc32/v5.00/bin/bin/../../lib/gcc/pic32m/13.2.1/libgcc.a(floatunsisf.o)
 .debug_loc     0x00002182       0x2c /opt/microchip/xc32/v5.00/bin/bin/../../lib/gcc/pic32m/13.2.1/../../../../pic32m/lib/libpic32.a(default-bootstrap-exception-handler.o)
 .debug_loc     0x000021ae       0x2c /opt/microchip/xc32/v5.00/bin/bin/../../lib/gcc/pic32m/13.2.1/../../../../pic32m/lib/libpic32.a(default-general-exception-handler.o)
 .debug_loc     0x000021da      0x102 /opt/microchip/xc32/v5.00/bin/bin/../../lib/gcc/pic32m/13.2.1/../../../../pic32m/lib/libc-musl.a(assert.o)
 .debug_loc     0x000022dc       0x20 /opt/microchip/xc32/v5.00/bin/bin/../../lib/gcc/pic32m/13.2.1/../../../../pic32m/lib/libc-musl.a(abort.o)
 .debug_loc     0x000022fc       0x97 /opt/microchip/xc32/v5.00/bin/bin/../../lib/gcc/pic32m/13.2.1/../../../../pic32m/lib/libc-musl.a(fprintf.o)
 .debug_loc     0x00002393       0x9c /opt/microchip/xc32/v5.00/bin/bin/../../lib/gcc/pic32m/13.2.1/../../../../pic32m/lib/libc-musl.a(fflush.o)
 .debug_loc     0x0000242f       0xdd /opt/microchip/xc32/v5.00/bin/bin/../../lib/gcc/pic32m/13.2.1/../../../../pic32m/lib/libc-musl.a(vfprintf.o)
 .debug_loc     0x0000250c       0x2c /opt/microchip/xc32/v5.00/bin/bin/../../lib/gcc/pic32m/13.2.1/../../../../pic32m/lib/libc-musl.a(stderr.o)
 .debug_loc     0x00002538       0x2b /opt/microchip/xc32/v5.00/bin/bin/../../lib/gcc/pic32m/13.2.1/../../../../pic32m/lib/libc-musl.a(putchar.o)
 .debug_loc     0x00002563       0x7c /opt/microchip/xc32/v5.00/bin/bin/../../lib/gcc/pic32m/13.2.1/../../../../pic32m/lib/libc-musl.a(puts.o)
 .debug_loc     0x000025df       0x4b /opt/microchip/xc32/v5.00/bin/bin/../../lib/gcc/pic32m/13.2.1/../../../../pic32m/lib/libc-musl.a(_Exit.o)
 .debug_loc     0x0000262a       0xbe /opt/microchip/xc32/v5.00/bin/bin/../../lib/gcc/pic32m/13.2.1/../../../../pic32m/lib/libc-musl.a(fputs.o)
 .debug_loc     0x000026e8       0x2c /opt/microchip/xc32/v5.00/bin/bin/../../lib/gcc/pic32m/13.2.1/../../../../pic32m/lib/libc-musl.a(__io_fmt_needed.o)
 .debug_loc     0x00002714      0x26e /opt/microchip/xc32/v5.00/bin/bin/../../lib/gcc/pic32m/13.2.1/../../../../pic32m/lib/libc-musl.a(__out.o)
 .debug_loc     0x00002982       0x5b /opt/microchip/xc32/v5.00/bin/bin/../../lib/gcc/pic32m/13.2.1/../../../../pic32m/lib/libc-musl.a(__pop_float.o)
 .debug_loc     0x000029dd       0xa4 /opt/microchip/xc32/v5.00/bin/bin/../../lib/gcc/pic32m/13.2.1/../../../../pic32m/lib/libc-musl.a(__pop_int.o)
 .debug_loc     0x00002a81       0xb1 /opt/microchip/xc32/v5.00/bin/bin/../../lib/gcc/pic32m/13.2.1/../../../../pic32m/lib/libc-musl.a(__pop_ptr.o)
 .debug_loc     0x00002b32      0x6b9 /opt/microchip/xc32/v5.00/bin/bin/../../lib/gcc/pic32m/13.2.1/../../../../pic32m/lib/libc-musl.a(__printf_core.o)
 .debug_loc     0x000031eb      0x238 /opt/microchip/xc32/v5.00/bin/bin/../../lib/gcc/pic32m/13.2.1/../../../../pic32m/lib/libc-musl.a(__stdio_close.o)
 .debug_loc     0x00003423      0x20d /opt/microchip/xc32/v5.00/bin/bin/../../lib/gcc/pic32m/13.2.1/../../../../pic32m/lib/libc-musl.a(fwrite.o)
 .debug_loc     0x00003630      0x12c /opt/microchip/xc32/v5.00/bin/bin/../../lib/gcc/pic32m/13.2.1/../../../../pic32m/lib/libc-musl.a(putc.o)
 .debug_loc     0x0000375c       0x9d /opt/microchip/xc32/v5.00/bin/bin/../../lib/gcc/pic32m/13.2.1/../../../../pic32m/lib/libc-musl.a(atoi.o)
 .debug_loc     0x000037f9      0xe6d /opt/microchip/xc32/v5.00/bin/bin/../../lib/gcc/pic32m/13.2.1/../../../../pic32m/lib/libc-musl.a(__fmt_a.o)
 .debug_loc     0x00004666      0x224 /opt/microchip/xc32/v5.00/bin/bin/../../lib/gcc/pic32m/13.2.1/../../../../pic32m/lib/libc-musl.a(__fmt_d.o)
 .debug_loc     0x0000488a      0xd76 /opt/microchip/xc32/v5.00/bin/bin/../../lib/gcc/pic32m/13.2.1/../../../../pic32m/lib/libc-musl.a(__fmt_fp.o)
 .debug_loc     0x00005600      0x131 /opt/microchip/xc32/v5.00/bin/bin/../../lib/gcc/pic32m/13.2.1/../../../../pic32m/lib/libc-musl.a(__fmt_o.o)
 .debug_loc     0x00005731      0x170 /opt/microchip/xc32/v5.00/bin/bin/../../lib/gcc/pic32m/13.2.1/../../../../pic32m/lib/libc-musl.a(__fmt_s.o)
 .debug_loc     0x000058a1      0x131 /opt/microchip/xc32/v5.00/bin/bin/../../lib/gcc/pic32m/13.2.1/../../../../pic32m/lib/libc-musl.a(__fmt_u.o)
 .debug_loc     0x000059d2      0x357 /opt/microchip/xc32/v5.00/bin/bin/../../lib/gcc/pic32m/13.2.1/../../../../pic32m/lib/libc-musl.a(__fmt_x.o)
 .debug_loc     0x00005d29       0x2c /opt/microchip/xc32/v5.00/bin/bin/../../lib/gcc/pic32m/13.2.1/../../../../pic32m/lib/libc-musl.a(__init_stdio.o)
 .debug_loc     0x00005d55      0x20c /opt/microchip/xc32/v5.00/bin/bin/../../lib/gcc/pic32m/13.2.1/../../../../pic32m/lib/libc-musl.a(__cvt_u.o)
 .debug_loc     0x00005f61      0xbb1 /opt/microchip/xc32/v5.00/bin/bin/../../lib/gcc/pic32m/13.2.1/../../../../pic32m/lib/libm-musl.a(fma.o)
 .debug_loc     0x00006b12      0x1d6 /opt/microchip/xc32/v5.00/bin/bin/../../lib/gcc/pic32m/13.2.1/../../../../pic32m/lib/libm-musl.a(scalbn.o)
 .debug_loc     0x00006ce8       0x15 /opt/microchip/xc32/v5.00/bin/bin/../../lib/gcc/pic32m/13.2.1/../../../../pic32m/lib/libpic32.a(_exit.o)
 .debug_loc     0x00006cfd      0x1b8 /opt/microchip/xc32/v5.00/bin/bin/../../lib/gcc/pic32m/13.2.1/../../../../pic32m/lib/libpic32.a(write.o)
 .debug_loc     0x00006eb5       0xfe /opt/microchip/xc32/v5.00/bin/bin/../../lib/gcc/pic32m/13.2.1/../../../../pic32m/lib/libc-size-musl.a(memcpy.o)
 .debug_loc     0x00006fb3      0x101 /opt/microchip/xc32/v5.00/bin/bin/../../lib/gcc/pic32m/13.2.1/../../../../pic32m/lib/libc-size-musl.a(memset.o)
 .debug_loc     0x000070b4       0x44 /opt/microchip/xc32/v5.00/bin/bin/../../lib/gcc/pic32m/13.2.1/../../../../pic32m/lib/libc-size-musl.a(strlen.o)
 .debug_loc     0x000070f8       0x86 /opt/microchip/xc32/v5.00/bin/bin/../../lib/gcc/pic32m/13.2.1/../../../../pic32m/lib/libc-size-musl.a(strcpy.o)
 .debug_loc     0x0000717e       0x8a /opt/microchip/xc32/v5.00/bin/bin/../../lib/gcc/pic32m/13.2.1/../../../../pic32m/lib/libc-size-musl.a(stpcpy.o)
 .debug_loc     0x00007208      0x381 /opt/microchip/xc32/v5.00/bin/bin/../../lib/gcc/pic32m/13.2.1/../../../../pic32m/lib/libe.a(_floatdidf.o)
 .debug_loc     0x00007589       0x99 /opt/microchip/xc32/v5.00/bin/bin/../../lib/gcc/pic32m/13.2.1/libgcc.a(_lshrdi3.o)
 .debug_loc     0x00007622       0x9e /opt/microchip/xc32/v5.00/bin/bin/../../lib/gcc/pic32m/13.2.1/libgcc.a(_ashldi3.o)
 .debug_loc     0x000076c0      0xa0f /opt/microchip/xc32/v5.00/bin/bin/../../lib/gcc/pic32m/13.2.1/libgcc.a(_udivdi3.o)
 .debug_loc     0x000080cf      0xa0a /opt/microchip/xc32/v5.00/bin/bin/../../lib/gcc/pic32m/13.2.1/libgcc.a(_umoddi3.o)

.debug_macinfo
 *.elf(.debug_macinfo)
 *(.debug_macinfo)

.debug_weaknames
 *.elf(.debug_weaknames)
 *(.debug_weaknames)

.debug_funcnames
 *.elf(.debug_funcnames)
 *(.debug_funcnames)

.debug_typenames
 *.elf(.debug_typenames)
 *(.debug_typenames)

.debug_varnames
 *.elf(.debug_varnames)
 *(.debug_varnames)

.debug_pubtypes
 *.elf(.debug_pubtypes)
 *(.debug_pubtypes)

.debug_ranges   0x00000000      0x738
 *.elf(.debug_ranges)
 *(.debug_ranges)
 .debug_ranges  0x00000000       0x18 build/default/production/ProjectSource/CommandRetrieveService.o
 .debug_ranges  0x00000018       0x10 /opt/microchip/xc32/v5.00/bin/bin/../../lib/gcc/pic32m/13.2.1/../../../../pic32m/lib/libpic32.a(default-bootstrap-exception-handler.o)
 .debug_ranges  0x00000028       0x10 /opt/microchip/xc32/v5.00/bin/bin/../../lib/gcc/pic32m/13.2.1/../../../../pic32m/lib/libpic32.a(default-on-reset.o)
 .debug_ranges  0x00000038       0x10 /opt/microchip/xc32/v5.00/bin/bin/../../lib/gcc/pic32m/13.2.1/../../../../pic32m/lib/libpic32.a(default-on-bootstrap.o)
 .debug_ranges  0x00000048       0x10 /opt/microchip/xc32/v5.00/bin/bin/../../lib/gcc/pic32m/13.2.1/../../../../pic32m/lib/libpic32.a(default-general-exception-handler.o)
 .debug_ranges  0x00000058       0x10 /opt/microchip/xc32/v5.00/bin/bin/../../lib/gcc/pic32m/13.2.1/../../../../pic32m/lib/libpic32.a(defaultinterrupt.o)
 .debug_ranges  0x00000068       0x10 /opt/microchip/xc32/v5.00/bin/bin/../../lib/gcc/pic32m/13.2.1/../../../../pic32m/lib/libc-musl.a(assert.o)
 .debug_ranges  0x00000078       0x10 /opt/microchip/xc32/v5.00/bin/bin/../../lib/gcc/pic32m/13.2.1/../../../../pic32m/lib/libc-musl.a(abort.o)
 .debug_ranges  0x00000088       0x10 /opt/microchip/xc32/v5.00/bin/bin/../../lib/gcc/pic32m/13.2.1/../../../../pic32m/lib/libc-musl.a(fprintf.o)
 .debug_ranges  0x00000098       0x40 /opt/microchip/xc32/v5.00/bin/bin/../../lib/gcc/pic32m/13.2.1/../../../../pic32m/lib/libc-musl.a(fflush.o)
 .debug_ranges  0x000000d8       0x18 /opt/microchip/xc32/v5.00/bin/bin/../../lib/gcc/pic32m/13.2.1/../../../../pic32m/lib/libc-musl.a(vfprintf.o)
 .debug_ranges  0x000000f0       0x28 /opt/microchip/xc32/v5.00/bin/bin/../../lib/gcc/pic32m/13.2.1/../../../../pic32m/lib/libc-musl.a(stderr.o)
 .debug_ranges  0x00000118       0x10 /opt/microchip/xc32/v5.00/bin/bin/../../lib/gcc/pic32m/13.2.1/../../../../pic32m/lib/libc-musl.a(putchar.o)
 .debug_ranges  0x00000128       0x10 /opt/microchip/xc32/v5.00/bin/bin/../../lib/gcc/pic32m/13.2.1/../../../../pic32m/lib/libc-musl.a(puts.o)
 .debug_ranges  0x00000138       0x10 /opt/microchip/xc32/v5.00/bin/bin/../../lib/gcc/pic32m/13.2.1/../../../../pic32m/lib/libc-musl.a(_Exit.o)
 .debug_ranges  0x00000148       0x10 /opt/microchip/xc32/v5.00/bin/bin/../../lib/gcc/pic32m/13.2.1/../../../../pic32m/lib/libc-musl.a(fputs.o)
 .debug_ranges  0x00000158       0x10 /opt/microchip/xc32/v5.00/bin/bin/../../lib/gcc/pic32m/13.2.1/../../../../pic32m/lib/libc-musl.a(__io_fmt_needed.o)
 .debug_ranges  0x00000168       0x18 /opt/microchip/xc32/v5.00/bin/bin/../../lib/gcc/pic32m/13.2.1/../../../../pic32m/lib/libc-musl.a(__io_init_needed.o)
 .debug_ranges  0x00000180       0x38 /opt/microchip/xc32/v5.00/bin/bin/../../lib/gcc/pic32m/13.2.1/../../../../pic32m/lib/libc-musl.a(__out.o)
 .debug_ranges  0x000001b8       0x10 /opt/microchip/xc32/v5.00/bin/bin/../../lib/gcc/pic32m/13.2.1/../../../../pic32m/lib/libc-musl.a(__pop_float.o)
 .debug_ranges  0x000001c8       0x10 /opt/microchip/xc32/v5.00/bin/bin/../../lib/gcc/pic32m/13.2.1/../../../../pic32m/lib/libc-musl.a(__pop_int.o)
 .debug_ranges  0x000001d8       0x10 /opt/microchip/xc32/v5.00/bin/bin/../../lib/gcc/pic32m/13.2.1/../../../../pic32m/lib/libc-musl.a(__pop_ptr.o)
 .debug_ranges  0x000001e8       0xe0 /opt/microchip/xc32/v5.00/bin/bin/../../lib/gcc/pic32m/13.2.1/../../../../pic32m/lib/libc-musl.a(__printf_core.o)
 .debug_ranges  0x000002c8       0x18 /opt/microchip/xc32/v5.00/bin/bin/../../lib/gcc/pic32m/13.2.1/../../../../pic32m/lib/libc-musl.a(__stdio_close.o)
 .debug_ranges  0x000002e0       0x18 /opt/microchip/xc32/v5.00/bin/bin/../../lib/gcc/pic32m/13.2.1/../../../../pic32m/lib/libc-musl.a(fwrite.o)
 .debug_ranges  0x000002f8       0x20 /opt/microchip/xc32/v5.00/bin/bin/../../lib/gcc/pic32m/13.2.1/../../../../pic32m/lib/libc-musl.a(putc.o)
 .debug_ranges  0x00000318       0x20 /opt/microchip/xc32/v5.00/bin/bin/../../lib/gcc/pic32m/13.2.1/../../../../pic32m/lib/libc-musl.a(stdout.o)
 .debug_ranges  0x00000338       0x28 /opt/microchip/xc32/v5.00/bin/bin/../../lib/gcc/pic32m/13.2.1/../../../../pic32m/lib/libc-musl.a(atoi.o)
 .debug_ranges  0x00000360       0x18 /opt/microchip/xc32/v5.00/bin/bin/../../lib/gcc/pic32m/13.2.1/../../../../pic32m/lib/libc-musl.a(tolower.o)
 .debug_ranges  0x00000378       0x10 /opt/microchip/xc32/v5.00/bin/bin/../../lib/gcc/pic32m/13.2.1/../../../../pic32m/lib/libc-musl.a(__fmt_a.o)
 .debug_ranges  0x00000388       0x10 /opt/microchip/xc32/v5.00/bin/bin/../../lib/gcc/pic32m/13.2.1/../../../../pic32m/lib/libc-musl.a(__fmt_d.o)
 .debug_ranges  0x00000398       0x10 /opt/microchip/xc32/v5.00/bin/bin/../../lib/gcc/pic32m/13.2.1/../../../../pic32m/lib/libc-musl.a(__fmt_fp.o)
 .debug_ranges  0x000003a8       0x10 /opt/microchip/xc32/v5.00/bin/bin/../../lib/gcc/pic32m/13.2.1/../../../../pic32m/lib/libc-musl.a(__fmt_o.o)
 .debug_ranges  0x000003b8       0x10 /opt/microchip/xc32/v5.00/bin/bin/../../lib/gcc/pic32m/13.2.1/../../../../pic32m/lib/libc-musl.a(__fmt_s.o)
 .debug_ranges  0x000003c8       0x10 /opt/microchip/xc32/v5.00/bin/bin/../../lib/gcc/pic32m/13.2.1/../../../../pic32m/lib/libc-musl.a(__fmt_u.o)
 .debug_ranges  0x000003d8       0x10 /opt/microchip/xc32/v5.00/bin/bin/../../lib/gcc/pic32m/13.2.1/../../../../pic32m/lib/libc-musl.a(__fmt_x.o)
 .debug_ranges  0x000003e8       0x18 /opt/microchip/xc32/v5.00/bin/bin/../../lib/gcc/pic32m/13.2.1/../../../../pic32m/lib/libc-musl.a(__init_stdio.o)
 .debug_ranges  0x00000400       0x10 /opt/microchip/xc32/v5.00/bin/bin/../../lib/gcc/pic32m/13.2.1/../../../../pic32m/lib/libc-musl.a(__io_file_needed.o)
 .debug_ranges  0x00000410       0x18 /opt/microchip/xc32/v5.00/bin/bin/../../lib/gcc/pic32m/13.2.1/../../../../pic32m/lib/libc-musl.a(toupper.o)
 .debug_ranges  0x00000428       0x10 /opt/microchip/xc32/v5.00/bin/bin/../../lib/gcc/pic32m/13.2.1/../../../../pic32m/lib/libc-musl.a(__cvt_u.o)
 .debug_ranges  0x00000438       0x90 /opt/microchip/xc32/v5.00/bin/bin/../../lib/gcc/pic32m/13.2.1/../../../../pic32m/lib/libm-musl.a(fma.o)
 .debug_ranges  0x000004c8       0x10 /opt/microchip/xc32/v5.00/bin/bin/../../lib/gcc/pic32m/13.2.1/../../../../pic32m/lib/libm-musl.a(scalbn.o)
 .debug_ranges  0x000004d8       0x10 /opt/microchip/xc32/v5.00/bin/bin/../../lib/gcc/pic32m/13.2.1/../../../../pic32m/lib/libpic32.a(_exit.o)
 .debug_ranges  0x000004e8       0x10 /opt/microchip/xc32/v5.00/bin/bin/../../lib/gcc/pic32m/13.2.1/../../../../pic32m/lib/libpic32.a(write.o)
 .debug_ranges  0x000004f8       0x10 /opt/microchip/xc32/v5.00/bin/bin/../../lib/gcc/pic32m/13.2.1/../../../../pic32m/lib/libpic32.a(lseek.o)
 .debug_ranges  0x00000508       0x10 /opt/microchip/xc32/v5.00/bin/bin/../../lib/gcc/pic32m/13.2.1/../../../../pic32m/lib/libpic32.a(close.o)
 .debug_ranges  0x00000518       0x10 /opt/microchip/xc32/v5.00/bin/bin/../../lib/gcc/pic32m/13.2.1/../../../../pic32m/lib/libc-size-musl.a(memcpy.o)
 .debug_ranges  0x00000528       0x10 /opt/microchip/xc32/v5.00/bin/bin/../../lib/gcc/pic32m/13.2.1/../../../../pic32m/lib/libc-size-musl.a(memset.o)
 .debug_ranges  0x00000538       0x10 /opt/microchip/xc32/v5.00/bin/bin/../../lib/gcc/pic32m/13.2.1/../../../../pic32m/lib/libc-size-musl.a(strlen.o)
 .debug_ranges  0x00000548       0x10 /opt/microchip/xc32/v5.00/bin/bin/../../lib/gcc/pic32m/13.2.1/../../../../pic32m/lib/libc-size-musl.a(strcpy.o)
 .debug_ranges  0x00000558       0x10 /opt/microchip/xc32/v5.00/bin/bin/../../lib/gcc/pic32m/13.2.1/../../../../pic32m/lib/libc-size-musl.a(stpcpy.o)
 .debug_ranges  0x00000568       0x98 /opt/microchip/xc32/v5.00/bin/bin/../../lib/gcc/pic32m/13.2.1/../../../../pic32m/lib/libe.a(_floatdidf.o)
 .debug_ranges  0x00000600       0xa0 /opt/microchip/xc32/v5.00/bin/bin/../../lib/gcc/pic32m/13.2.1/libgcc.a(_udivdi3.o)
 .debug_ranges  0x000006a0       0x98 /opt/microchip/xc32/v5.00/bin/bin/../../lib/gcc/pic32m/13.2.1/libgcc.a(_umoddi3.o)

/DISCARD/
 *(.rel.dyn)

.gnu.attributes
                0x00000000       0x10
 *(.gnu.attributes)
 .gnu.attributes
                0x00000000       0x10 build/default/production/FrameworkSource/ES_CheckEvents.o
 .gnu.attributes
                0x00000010       0x10 build/default/production/FrameworkSource/ES_DeferRecall.o
 .gnu.attributes
                0x00000020       0x10 build/default/production/FrameworkSource/ES_Framework.o
 .gnu.attributes
                0x00000030       0x10 build/default/production/FrameworkSource/ES_LookupTables.o
 .gnu.attributes
                0x00000040       0x10 build/default/production/FrameworkSource/ES_Port.o
 .gnu.attributes
                0x00000050       0x10 build/default/production/FrameworkSource/ES_PostList.o
 .gnu.attributes
                0x00000060       0x10 build/default/production/FrameworkSource/ES_Queue.o
 .gnu.attributes
                0x00000070       0x10 build/default/production/FrameworkSource/ES_Timers.o
 .gnu.attributes
                0x00000080       0x10 build/default/production/FrameworkSource/terminal.o
 .gnu.attributes
                0x00000090       0x10 build/default/production/FrameworkSource/circular_buffer_no_modulo_threadsafe.o
 .gnu.attributes
                0x000000a0       0x10 build/default/production/FrameworkSource/dbprintf.o
 .gnu.attributes
                0x000000b0       0x10 build/default/production/ProjectSource/EventCheckers.o
 .gnu.attributes
                0x000000c0       0x10 build/default/production/ProjectSource/TestHarnessService0.o
 .gnu.attributes
                0x000000d0       0x10 build/default/production/ProjectSource/main.o
 .gnu.attributes
                0x000000e0       0x10 build/default/production/ProjectSource/ADService.o
 .gnu.attributes
                0x000000f0       0x10 build/default/production/ProjectSource/PIC32_AD_Lib.o
 .gnu.attributes
                0x00000100       0x10 build/default/production/ProjectSource/DCMotorService.o
 .gnu.attributes
                0x00000110       0x10 build/default/production/ProjectSource/PIC32_SPI_HAL.o
 .gnu.attributes
                0x00000120       0x10 build/default/production/ProjectSource/CommandRetrieveService.o
 .gnu.attributes
                0x00000130       0x10 build/default/production/ProjectSource/MainLogicFSM.o
 .gnu.attributes
                0x00000140       0x10 build/default/production/ProjectSource/Ports.o
 .gnu.attributes
                0x00000150       0x10 build/default/production/ProjectSource/CommonDefinitions.o
 .gnu.attributes
                0x00000160       0x10 /tmp/cckmVf8F.o
 .gnu.attributes
                0x00000170       0x10 /tmp/cc6UiQtu.o
 .gnu.attributes
                0x00000180       0x10 /tmp/ccZ3wfy0.o
 .gnu.attributes
                0x00000190       0x10 /opt/microchip/xc32/v5.00/bin/bin/../../lib/gcc/pic32m/13.2.1/../../../../pic32m/lib/debug-exception-return.o
 .gnu.attributes
                0x000001a0       0x10 /opt/microchip/xc32/v5.00/bin/bin/../../lib/gcc/pic32m/13.2.1/../../../../pic32m/lib/pic32_software_reset.o
 .gnu.attributes
                0x000001b0       0x10 /opt/microchip/xc32/v5.00/bin/bin/../../lib/gcc/pic32m/13.2.1/libgcc.a(floatunsisf.o)
 .gnu.attributes
                0x000001c0       0x10 /opt/microchip/xc32/v5.00/bin/bin/../../lib/gcc/pic32m/13.2.1/../../../../pic32m/lib/libpic32.a(default-bootstrap-exception-handler.o)
 .gnu.attributes
                0x000001d0       0x10 /opt/microchip/xc32/v5.00/bin/bin/../../lib/gcc/pic32m/13.2.1/../../../../pic32m/lib/libpic32.a(default-on-reset.o)
 .gnu.attributes
                0x000001e0       0x10 /opt/microchip/xc32/v5.00/bin/bin/../../lib/gcc/pic32m/13.2.1/../../../../pic32m/lib/libpic32.a(default-on-bootstrap.o)
 .gnu.attributes
                0x000001f0       0x10 /opt/microchip/xc32/v5.00/bin/bin/../../lib/gcc/pic32m/13.2.1/../../../../pic32m/lib/libpic32.a(default-nmi-handler.o)
 .gnu.attributes
                0x00000200       0x10 /opt/microchip/xc32/v5.00/bin/bin/../../lib/gcc/pic32m/13.2.1/../../../../pic32m/lib/libpic32.a(xc32_uart.o)
 .gnu.attributes
                0x00000210       0x10 /opt/microchip/xc32/v5.00/bin/bin/../../lib/gcc/pic32m/13.2.1/../../../../pic32m/lib/libpic32.a(pic32_data_init_core.o)
 .gnu.attributes
                0x00000220       0x10 /opt/microchip/xc32/v5.00/bin/bin/../../lib/gcc/pic32m/13.2.1/../../../../pic32m/lib/libpic32.a(general-exception.o)
 .gnu.attributes
                0x00000230       0x10 /opt/microchip/xc32/v5.00/bin/bin/../../lib/gcc/pic32m/13.2.1/../../../../pic32m/lib/libpic32.a(vector1.o)
 .gnu.attributes
                0x00000240       0x10 /opt/microchip/xc32/v5.00/bin/bin/../../lib/gcc/pic32m/13.2.1/../../../../pic32m/lib/libpic32.a(vector2.o)
 .gnu.attributes
                0x00000250       0x10 /opt/microchip/xc32/v5.00/bin/bin/../../lib/gcc/pic32m/13.2.1/../../../../pic32m/lib/libpic32.a(vector3.o)
 .gnu.attributes
                0x00000260       0x10 /opt/microchip/xc32/v5.00/bin/bin/../../lib/gcc/pic32m/13.2.1/../../../../pic32m/lib/libpic32.a(vector4.o)
 .gnu.attributes
                0x00000270       0x10 /opt/microchip/xc32/v5.00/bin/bin/../../lib/gcc/pic32m/13.2.1/../../../../pic32m/lib/libpic32.a(vector5.o)
 .gnu.attributes
                0x00000280       0x10 /opt/microchip/xc32/v5.00/bin/bin/../../lib/gcc/pic32m/13.2.1/../../../../pic32m/lib/libpic32.a(vector6.o)
 .gnu.attributes
                0x00000290       0x10 /opt/microchip/xc32/v5.00/bin/bin/../../lib/gcc/pic32m/13.2.1/../../../../pic32m/lib/libpic32.a(vector7.o)
 .gnu.attributes
                0x000002a0       0x10 /opt/microchip/xc32/v5.00/bin/bin/../../lib/gcc/pic32m/13.2.1/../../../../pic32m/lib/libpic32.a(vector8.o)
 .gnu.attributes
                0x000002b0       0x10 /opt/microchip/xc32/v5.00/bin/bin/../../lib/gcc/pic32m/13.2.1/../../../../pic32m/lib/libpic32.a(vector9.o)
 .gnu.attributes
                0x000002c0       0x10 /opt/microchip/xc32/v5.00/bin/bin/../../lib/gcc/pic32m/13.2.1/../../../../pic32m/lib/libpic32.a(vector10.o)
 .gnu.attributes
                0x000002d0       0x10 /opt/microchip/xc32/v5.00/bin/bin/../../lib/gcc/pic32m/13.2.1/../../../../pic32m/lib/libpic32.a(vector11.o)
 .gnu.attributes
                0x000002e0       0x10 /opt/microchip/xc32/v5.00/bin/bin/../../lib/gcc/pic32m/13.2.1/../../../../pic32m/lib/libpic32.a(vector12.o)
 .gnu.attributes
                0x000002f0       0x10 /opt/microchip/xc32/v5.00/bin/bin/../../lib/gcc/pic32m/13.2.1/../../../../pic32m/lib/libpic32.a(vector13.o)
 .gnu.attributes
                0x00000300       0x10 /opt/microchip/xc32/v5.00/bin/bin/../../lib/gcc/pic32m/13.2.1/../../../../pic32m/lib/libpic32.a(vector14.o)
 .gnu.attributes
                0x00000310       0x10 /opt/microchip/xc32/v5.00/bin/bin/../../lib/gcc/pic32m/13.2.1/../../../../pic32m/lib/libpic32.a(vector15.o)
 .gnu.attributes
                0x00000320       0x10 /opt/microchip/xc32/v5.00/bin/bin/../../lib/gcc/pic32m/13.2.1/../../../../pic32m/lib/libpic32.a(vector16.o)
 .gnu.attributes
                0x00000330       0x10 /opt/microchip/xc32/v5.00/bin/bin/../../lib/gcc/pic32m/13.2.1/../../../../pic32m/lib/libpic32.a(vector17.o)
 .gnu.attributes
                0x00000340       0x10 /opt/microchip/xc32/v5.00/bin/bin/../../lib/gcc/pic32m/13.2.1/../../../../pic32m/lib/libpic32.a(vector18.o)
 .gnu.attributes
                0x00000350       0x10 /opt/microchip/xc32/v5.00/bin/bin/../../lib/gcc/pic32m/13.2.1/../../../../pic32m/lib/libpic32.a(vector19.o)
 .gnu.attributes
                0x00000360       0x10 /opt/microchip/xc32/v5.00/bin/bin/../../lib/gcc/pic32m/13.2.1/../../../../pic32m/lib/libpic32.a(vector20.o)
 .gnu.attributes
                0x00000370       0x10 /opt/microchip/xc32/v5.00/bin/bin/../../lib/gcc/pic32m/13.2.1/../../../../pic32m/lib/libpic32.a(vector21.o)
 .gnu.attributes
                0x00000380       0x10 /opt/microchip/xc32/v5.00/bin/bin/../../lib/gcc/pic32m/13.2.1/../../../../pic32m/lib/libpic32.a(vector22.o)
 .gnu.attributes
                0x00000390       0x10 /opt/microchip/xc32/v5.00/bin/bin/../../lib/gcc/pic32m/13.2.1/../../../../pic32m/lib/libpic32.a(vector23.o)
 .gnu.attributes
                0x000003a0       0x10 /opt/microchip/xc32/v5.00/bin/bin/../../lib/gcc/pic32m/13.2.1/../../../../pic32m/lib/libpic32.a(vector24.o)
 .gnu.attributes
                0x000003b0       0x10 /opt/microchip/xc32/v5.00/bin/bin/../../lib/gcc/pic32m/13.2.1/../../../../pic32m/lib/libpic32.a(vector25.o)
 .gnu.attributes
                0x000003c0       0x10 /opt/microchip/xc32/v5.00/bin/bin/../../lib/gcc/pic32m/13.2.1/../../../../pic32m/lib/libpic32.a(vector26.o)
 .gnu.attributes
                0x000003d0       0x10 /opt/microchip/xc32/v5.00/bin/bin/../../lib/gcc/pic32m/13.2.1/../../../../pic32m/lib/libpic32.a(vector27.o)
 .gnu.attributes
                0x000003e0       0x10 /opt/microchip/xc32/v5.00/bin/bin/../../lib/gcc/pic32m/13.2.1/../../../../pic32m/lib/libpic32.a(vector28.o)
 .gnu.attributes
                0x000003f0       0x10 /opt/microchip/xc32/v5.00/bin/bin/../../lib/gcc/pic32m/13.2.1/../../../../pic32m/lib/libpic32.a(vector29.o)
 .gnu.attributes
                0x00000400       0x10 /opt/microchip/xc32/v5.00/bin/bin/../../lib/gcc/pic32m/13.2.1/../../../../pic32m/lib/libpic32.a(vector30.o)
 .gnu.attributes
                0x00000410       0x10 /opt/microchip/xc32/v5.00/bin/bin/../../lib/gcc/pic32m/13.2.1/../../../../pic32m/lib/libpic32.a(vector31.o)
 .gnu.attributes
                0x00000420       0x10 /opt/microchip/xc32/v5.00/bin/bin/../../lib/gcc/pic32m/13.2.1/../../../../pic32m/lib/libpic32.a(vector32.o)
 .gnu.attributes
                0x00000430       0x10 /opt/microchip/xc32/v5.00/bin/bin/../../lib/gcc/pic32m/13.2.1/../../../../pic32m/lib/libpic32.a(vector33.o)
 .gnu.attributes
                0x00000440       0x10 /opt/microchip/xc32/v5.00/bin/bin/../../lib/gcc/pic32m/13.2.1/../../../../pic32m/lib/libpic32.a(vector34.o)
 .gnu.attributes
                0x00000450       0x10 /opt/microchip/xc32/v5.00/bin/bin/../../lib/gcc/pic32m/13.2.1/../../../../pic32m/lib/libpic32.a(vector35.o)
 .gnu.attributes
                0x00000460       0x10 /opt/microchip/xc32/v5.00/bin/bin/../../lib/gcc/pic32m/13.2.1/../../../../pic32m/lib/libpic32.a(vector36.o)
 .gnu.attributes
                0x00000470       0x10 /opt/microchip/xc32/v5.00/bin/bin/../../lib/gcc/pic32m/13.2.1/../../../../pic32m/lib/libpic32.a(vector37.o)
 .gnu.attributes
                0x00000480       0x10 /opt/microchip/xc32/v5.00/bin/bin/../../lib/gcc/pic32m/13.2.1/../../../../pic32m/lib/libpic32.a(vector38.o)
 .gnu.attributes
                0x00000490       0x10 /opt/microchip/xc32/v5.00/bin/bin/../../lib/gcc/pic32m/13.2.1/../../../../pic32m/lib/libpic32.a(vector39.o)
 .gnu.attributes
                0x000004a0       0x10 /opt/microchip/xc32/v5.00/bin/bin/../../lib/gcc/pic32m/13.2.1/../../../../pic32m/lib/libpic32.a(vector40.o)
 .gnu.attributes
                0x000004b0       0x10 /opt/microchip/xc32/v5.00/bin/bin/../../lib/gcc/pic32m/13.2.1/../../../../pic32m/lib/libpic32.a(vector41.o)
 .gnu.attributes
                0x000004c0       0x10 /opt/microchip/xc32/v5.00/bin/bin/../../lib/gcc/pic32m/13.2.1/../../../../pic32m/lib/libpic32.a(vector42.o)
 .gnu.attributes
                0x000004d0       0x10 /opt/microchip/xc32/v5.00/bin/bin/../../lib/gcc/pic32m/13.2.1/../../../../pic32m/lib/libpic32.a(vector43.o)
 .gnu.attributes
                0x000004e0       0x10 /opt/microchip/xc32/v5.00/bin/bin/../../lib/gcc/pic32m/13.2.1/../../../../pic32m/lib/libpic32.a(default-general-exception-handler.o)
 .gnu.attributes
                0x000004f0       0x10 /opt/microchip/xc32/v5.00/bin/bin/../../lib/gcc/pic32m/13.2.1/../../../../pic32m/lib/libpic32.a(defaultinterrupt.o)
 .gnu.attributes
                0x00000500       0x10 /opt/microchip/xc32/v5.00/bin/bin/../../lib/gcc/pic32m/13.2.1/../../../../pic32m/lib/libc-musl.a(assert.o)
 .gnu.attributes
                0x00000510       0x10 /opt/microchip/xc32/v5.00/bin/bin/../../lib/gcc/pic32m/13.2.1/../../../../pic32m/lib/libc-musl.a(abort.o)
 .gnu.attributes
                0x00000520       0x10 /opt/microchip/xc32/v5.00/bin/bin/../../lib/gcc/pic32m/13.2.1/../../../../pic32m/lib/libc-musl.a(fprintf.o)
 .gnu.attributes
                0x00000530       0x10 /opt/microchip/xc32/v5.00/bin/bin/../../lib/gcc/pic32m/13.2.1/../../../../pic32m/lib/libc-musl.a(fflush.o)
 .gnu.attributes
                0x00000540       0x10 /opt/microchip/xc32/v5.00/bin/bin/../../lib/gcc/pic32m/13.2.1/../../../../pic32m/lib/libc-musl.a(vfprintf.o)
 .gnu.attributes
                0x00000550       0x10 /opt/microchip/xc32/v5.00/bin/bin/../../lib/gcc/pic32m/13.2.1/../../../../pic32m/lib/libc-musl.a(stderr.o)
 .gnu.attributes
                0x00000560       0x10 /opt/microchip/xc32/v5.00/bin/bin/../../lib/gcc/pic32m/13.2.1/../../../../pic32m/lib/libc-musl.a(putchar.o)
 .gnu.attributes
                0x00000570       0x10 /opt/microchip/xc32/v5.00/bin/bin/../../lib/gcc/pic32m/13.2.1/../../../../pic32m/lib/libc-musl.a(puts.o)
 .gnu.attributes
                0x00000580       0x10 /opt/microchip/xc32/v5.00/bin/bin/../../lib/gcc/pic32m/13.2.1/../../../../pic32m/lib/libc-musl.a(_Exit.o)
 .gnu.attributes
                0x00000590       0x10 /opt/microchip/xc32/v5.00/bin/bin/../../lib/gcc/pic32m/13.2.1/../../../../pic32m/lib/libc-musl.a(fputs.o)
 .gnu.attributes
                0x000005a0       0x10 /opt/microchip/xc32/v5.00/bin/bin/../../lib/gcc/pic32m/13.2.1/../../../../pic32m/lib/libc-musl.a(__io_fmt_needed.o)
 .gnu.attributes
                0x000005b0       0x10 /opt/microchip/xc32/v5.00/bin/bin/../../lib/gcc/pic32m/13.2.1/../../../../pic32m/lib/libc-musl.a(__io_init_needed.o)
 .gnu.attributes
                0x000005c0       0x10 /opt/microchip/xc32/v5.00/bin/bin/../../lib/gcc/pic32m/13.2.1/../../../../pic32m/lib/libc-musl.a(__out.o)
 .gnu.attributes
                0x000005d0       0x10 /opt/microchip/xc32/v5.00/bin/bin/../../lib/gcc/pic32m/13.2.1/../../../../pic32m/lib/libc-musl.a(__pop_float.o)
 .gnu.attributes
                0x000005e0       0x10 /opt/microchip/xc32/v5.00/bin/bin/../../lib/gcc/pic32m/13.2.1/../../../../pic32m/lib/libc-musl.a(__pop_int.o)
 .gnu.attributes
                0x000005f0       0x10 /opt/microchip/xc32/v5.00/bin/bin/../../lib/gcc/pic32m/13.2.1/../../../../pic32m/lib/libc-musl.a(__pop_ptr.o)
 .gnu.attributes
                0x00000600       0x10 /opt/microchip/xc32/v5.00/bin/bin/../../lib/gcc/pic32m/13.2.1/../../../../pic32m/lib/libc-musl.a(__printf_core.o)
 .gnu.attributes
                0x00000610       0x10 /opt/microchip/xc32/v5.00/bin/bin/../../lib/gcc/pic32m/13.2.1/../../../../pic32m/lib/libc-musl.a(__stdio_close.o)
 .gnu.attributes
                0x00000620       0x10 /opt/microchip/xc32/v5.00/bin/bin/../../lib/gcc/pic32m/13.2.1/../../../../pic32m/lib/libc-musl.a(fwrite.o)
 .gnu.attributes
                0x00000630       0x10 /opt/microchip/xc32/v5.00/bin/bin/../../lib/gcc/pic32m/13.2.1/../../../../pic32m/lib/libc-musl.a(putc.o)
 .gnu.attributes
                0x00000640       0x10 /opt/microchip/xc32/v5.00/bin/bin/../../lib/gcc/pic32m/13.2.1/../../../../pic32m/lib/libc-musl.a(stdout.o)
 .gnu.attributes
                0x00000650       0x10 /opt/microchip/xc32/v5.00/bin/bin/../../lib/gcc/pic32m/13.2.1/../../../../pic32m/lib/libc-musl.a(atoi.o)
 .gnu.attributes
                0x00000660       0x10 /opt/microchip/xc32/v5.00/bin/bin/../../lib/gcc/pic32m/13.2.1/../../../../pic32m/lib/libc-musl.a(tolower.o)
 .gnu.attributes
                0x00000670       0x10 /opt/microchip/xc32/v5.00/bin/bin/../../lib/gcc/pic32m/13.2.1/../../../../pic32m/lib/libc-musl.a(__fmt_a.o)
 .gnu.attributes
                0x00000680       0x10 /opt/microchip/xc32/v5.00/bin/bin/../../lib/gcc/pic32m/13.2.1/../../../../pic32m/lib/libc-musl.a(__fmt_d.o)
 .gnu.attributes
                0x00000690       0x10 /opt/microchip/xc32/v5.00/bin/bin/../../lib/gcc/pic32m/13.2.1/../../../../pic32m/lib/libc-musl.a(__fmt_fp.o)
 .gnu.attributes
                0x000006a0       0x10 /opt/microchip/xc32/v5.00/bin/bin/../../lib/gcc/pic32m/13.2.1/../../../../pic32m/lib/libc-musl.a(__fmt_o.o)
 .gnu.attributes
                0x000006b0       0x10 /opt/microchip/xc32/v5.00/bin/bin/../../lib/gcc/pic32m/13.2.1/../../../../pic32m/lib/libc-musl.a(__fmt_s.o)
 .gnu.attributes
                0x000006c0       0x10 /opt/microchip/xc32/v5.00/bin/bin/../../lib/gcc/pic32m/13.2.1/../../../../pic32m/lib/libc-musl.a(__fmt_u.o)
 .gnu.attributes
                0x000006d0       0x10 /opt/microchip/xc32/v5.00/bin/bin/../../lib/gcc/pic32m/13.2.1/../../../../pic32m/lib/libc-musl.a(__fmt_x.o)
 .gnu.attributes
                0x000006e0       0x10 /opt/microchip/xc32/v5.00/bin/bin/../../lib/gcc/pic32m/13.2.1/../../../../pic32m/lib/libc-musl.a(__init_stdio.o)
 .gnu.attributes
                0x000006f0       0x10 /opt/microchip/xc32/v5.00/bin/bin/../../lib/gcc/pic32m/13.2.1/../../../../pic32m/lib/libc-musl.a(__io_file_needed.o)
 .gnu.attributes
                0x00000700       0x10 /opt/microchip/xc32/v5.00/bin/bin/../../lib/gcc/pic32m/13.2.1/../../../../pic32m/lib/libc-musl.a(toupper.o)
 .gnu.attributes
                0x00000710       0x10 /opt/microchip/xc32/v5.00/bin/bin/../../lib/gcc/pic32m/13.2.1/../../../../pic32m/lib/libc-musl.a(__cvt_u.o)
 .gnu.attributes
                0x00000720       0x10 /opt/microchip/xc32/v5.00/bin/bin/../../lib/gcc/pic32m/13.2.1/../../../../pic32m/lib/libm.a(floor32.o)
 .gnu.attributes
                0x00000730       0x10 /opt/microchip/xc32/v5.00/bin/bin/../../lib/gcc/pic32m/13.2.1/../../../../pic32m/lib/libm.a(dp32div.o)
 .gnu.attributes
                0x00000740       0x10 /opt/microchip/xc32/v5.00/bin/bin/../../lib/gcc/pic32m/13.2.1/../../../../pic32m/lib/libm.a(dp32mul.o)
 .gnu.attributes
                0x00000750       0x10 /opt/microchip/xc32/v5.00/bin/bin/../../lib/gcc/pic32m/13.2.1/../../../../pic32m/lib/libm.a(dp32subadd.o)
 .gnu.attributes
                0x00000760       0x10 /opt/microchip/xc32/v5.00/bin/bin/../../lib/gcc/pic32m/13.2.1/../../../../pic32m/lib/libm.a(dpcmp.o)
 .gnu.attributes
                0x00000770       0x10 /opt/microchip/xc32/v5.00/bin/bin/../../lib/gcc/pic32m/13.2.1/../../../../pic32m/lib/libm.a(dpcmplt.o)
 .gnu.attributes
                0x00000780       0x10 /opt/microchip/xc32/v5.00/bin/bin/../../lib/gcc/pic32m/13.2.1/../../../../pic32m/lib/libm.a(dptoli.o)
 .gnu.attributes
                0x00000790       0x10 /opt/microchip/xc32/v5.00/bin/bin/../../lib/gcc/pic32m/13.2.1/../../../../pic32m/lib/libm.a(fp32div.o)
 .gnu.attributes
                0x000007a0       0x10 /opt/microchip/xc32/v5.00/bin/bin/../../lib/gcc/pic32m/13.2.1/../../../../pic32m/lib/libm.a(fp32mul.o)
 .gnu.attributes
                0x000007b0       0x10 /opt/microchip/xc32/v5.00/bin/bin/../../lib/gcc/pic32m/13.2.1/../../../../pic32m/lib/libm.a(fp32subadd.o)
 .gnu.attributes
                0x000007c0       0x10 /opt/microchip/xc32/v5.00/bin/bin/../../lib/gcc/pic32m/13.2.1/../../../../pic32m/lib/libm.a(sitofp.o)
 .gnu.attributes
                0x000007d0       0x10 /opt/microchip/xc32/v5.00/bin/bin/../../lib/gcc/pic32m/13.2.1/../../../../pic32m/lib/libm-musl.a(fma.o)
 .gnu.attributes
                0x000007e0       0x10 /opt/microchip/xc32/v5.00/bin/bin/../../lib/gcc/pic32m/13.2.1/../../../../pic32m/lib/libm-musl.a(scalbn.o)
 .gnu.attributes
                0x000007f0       0x10 /opt/microchip/xc32/v5.00/bin/bin/../../lib/gcc/pic32m/13.2.1/../../../../pic32m/lib/libpic32.a(_exit.o)
 .gnu.attributes
                0x00000800       0x10 /opt/microchip/xc32/v5.00/bin/bin/../../lib/gcc/pic32m/13.2.1/../../../../pic32m/lib/libpic32.a(write.o)
 .gnu.attributes
                0x00000810       0x10 /opt/microchip/xc32/v5.00/bin/bin/../../lib/gcc/pic32m/13.2.1/../../../../pic32m/lib/libpic32.a(lseek.o)
 .gnu.attributes
                0x00000820       0x10 /opt/microchip/xc32/v5.00/bin/bin/../../lib/gcc/pic32m/13.2.1/../../../../pic32m/lib/libpic32.a(close.o)
 .gnu.attributes
                0x00000830       0x10 /opt/microchip/xc32/v5.00/bin/bin/../../lib/gcc/pic32m/13.2.1/../../../../pic32m/lib/libpic32.a(errno.o)
 .gnu.attributes
                0x00000840       0x10 /opt/microchip/xc32/v5.00/bin/bin/../../lib/gcc/pic32m/13.2.1/../../../../pic32m/lib/libc-size-musl.a(memcpy.o)
 .gnu.attributes
                0x00000850       0x10 /opt/microchip/xc32/v5.00/bin/bin/../../lib/gcc/pic32m/13.2.1/../../../../pic32m/lib/libc-size-musl.a(memset.o)
 .gnu.attributes
                0x00000860       0x10 /opt/microchip/xc32/v5.00/bin/bin/../../lib/gcc/pic32m/13.2.1/../../../../pic32m/lib/libc-size-musl.a(strlen.o)
 .gnu.attributes
                0x00000870       0x10 /opt/microchip/xc32/v5.00/bin/bin/../../lib/gcc/pic32m/13.2.1/../../../../pic32m/lib/libc-size-musl.a(strcpy.o)
 .gnu.attributes
                0x00000880       0x10 /opt/microchip/xc32/v5.00/bin/bin/../../lib/gcc/pic32m/13.2.1/../../../../pic32m/lib/libc-size-musl.a(stpcpy.o)
 .gnu.attributes
                0x00000890       0x10 /opt/microchip/xc32/v5.00/bin/bin/../../lib/gcc/pic32m/13.2.1/../../../../pic32m/lib/libm.a(dptofp.o)
 .gnu.attributes
                0x000008a0       0x10 /opt/microchip/xc32/v5.00/bin/bin/../../lib/gcc/pic32m/13.2.1/../../../../pic32m/lib/libm.a(fptodp.o)
 .gnu.attributes
                0x000008b0       0x10 /opt/microchip/xc32/v5.00/bin/bin/../../lib/gcc/pic32m/13.2.1/../../../../pic32m/lib/libe.a(_floatdidf.o)
 .gnu.attributes
                0x000008c0       0x10 /opt/microchip/xc32/v5.00/bin/bin/../../lib/gcc/pic32m/13.2.1/libgcc.a(_lshrdi3.o)
 .gnu.attributes
                0x000008d0       0x10 /opt/microchip/xc32/v5.00/bin/bin/../../lib/gcc/pic32m/13.2.1/libgcc.a(_ashldi3.o)
 .gnu.attributes
                0x000008e0       0x10 /opt/microchip/xc32/v5.00/bin/bin/../../lib/gcc/pic32m/13.2.1/libgcc.a(_udivdi3.o)
 .gnu.attributes
                0x000008f0       0x10 /opt/microchip/xc32/v5.00/bin/bin/../../lib/gcc/pic32m/13.2.1/libgcc.a(_umoddi3.o)
 .gnu.attributes
                0x00000900       0x10 /opt/microchip/xc32/v5.00/bin/bin/../../lib/gcc/pic32m/13.2.1/../../../../pic32m/lib/libpic32.a(pic32_data_init_clear.o)
 .gnu.attributes
                0x00000910       0x10 /opt/microchip/xc32/v5.00/bin/bin/../../lib/gcc/pic32m/13.2.1/../../../../pic32m/lib/libpic32.a(pic32_data_init_copy.o)

/DISCARD/
 *(.note.GNU-stack)

/DISCARD/
 *(.note.GNU-stack)
 *(.gnu_debuglink)
 *(.gnu.lto_*)
 *(.discard)
OUTPUT(dist/default/production/ME218B_Lab8.production.elf elf32-tradlittlemips)
LOAD data_init

.note           0x00000000      0xea0
 .note          0x00000000       0x18 build/default/production/FrameworkSource/ES_CheckEvents.o
 .note          0x00000018       0x18 build/default/production/FrameworkSource/ES_DeferRecall.o
 .note          0x00000030       0x18 build/default/production/FrameworkSource/ES_Framework.o
 .note          0x00000048       0x18 build/default/production/FrameworkSource/ES_LookupTables.o
 .note          0x00000060       0xd8 build/default/production/FrameworkSource/ES_Port.o
 .note          0x00000138       0x18 build/default/production/FrameworkSource/ES_PostList.o
 .note          0x00000150       0x18 build/default/production/FrameworkSource/ES_Queue.o
 .note          0x00000168       0x18 build/default/production/FrameworkSource/ES_Timers.o
 .note          0x00000180       0x18 build/default/production/FrameworkSource/terminal.o
 .note          0x00000198       0x18 build/default/production/FrameworkSource/circular_buffer_no_modulo_threadsafe.o
 .note          0x000001b0       0x18 build/default/production/FrameworkSource/dbprintf.o
 .note          0x000001c8       0x18 build/default/production/ProjectSource/EventCheckers.o
 .note          0x000001e0       0x18 build/default/production/ProjectSource/TestHarnessService0.o
 .note          0x000001f8       0x18 build/default/production/ProjectSource/main.o
 .note          0x00000210       0x18 build/default/production/ProjectSource/ADService.o
 .note          0x00000228       0x18 build/default/production/ProjectSource/PIC32_AD_Lib.o
 .note          0x00000240       0x18 build/default/production/ProjectSource/DCMotorService.o
 .note          0x00000258       0x18 build/default/production/ProjectSource/PIC32_SPI_HAL.o
 .note          0x00000270       0x18 build/default/production/ProjectSource/CommandRetrieveService.o
 .note          0x00000288       0x18 build/default/production/ProjectSource/MainLogicFSM.o
 .note          0x000002a0       0x18 build/default/production/ProjectSource/Ports.o
 .note          0x000002b8       0x18 build/default/production/ProjectSource/CommonDefinitions.o
 .note          0x000002d0       0x18 /tmp/cckmVf8F.o
 .note          0x000002e8       0x18 /tmp/cc6UiQtu.o
 .note          0x00000300       0x18 /tmp/ccZ3wfy0.o
 .note          0x00000318       0x48 /opt/microchip/xc32/v5.00/bin/bin/../../lib/gcc/pic32m/13.2.1/../../../../pic32m/lib/debug-exception-return.o
 .note          0x00000360       0x18 /opt/microchip/xc32/v5.00/bin/bin/../../lib/gcc/pic32m/13.2.1/../../../../pic32m/lib/pic32_software_reset.o
 .note          0x00000378       0x18 /opt/microchip/xc32/v5.00/bin/bin/../../lib/gcc/pic32m/13.2.1/libgcc.a(floatunsisf.o)
 .note          0x00000390       0x18 /opt/microchip/xc32/v5.00/bin/bin/../../lib/gcc/pic32m/13.2.1/../../../../pic32m/lib/libpic32.a(default-bootstrap-exception-handler.o)
 .note          0x000003a8       0x18 /opt/microchip/xc32/v5.00/bin/bin/../../lib/gcc/pic32m/13.2.1/../../../../pic32m/lib/libpic32.a(default-on-reset.o)
 .note          0x000003c0       0x18 /opt/microchip/xc32/v5.00/bin/bin/../../lib/gcc/pic32m/13.2.1/../../../../pic32m/lib/libpic32.a(default-on-bootstrap.o)
 .note          0x000003d8       0x18 /opt/microchip/xc32/v5.00/bin/bin/../../lib/gcc/pic32m/13.2.1/../../../../pic32m/lib/libpic32.a(default-nmi-handler.o)
 .note          0x000003f0       0x18 /opt/microchip/xc32/v5.00/bin/bin/../../lib/gcc/pic32m/13.2.1/../../../../pic32m/lib/libpic32.a(xc32_uart.o)
 .note          0x00000408       0x18 /opt/microchip/xc32/v5.00/bin/bin/../../lib/gcc/pic32m/13.2.1/../../../../pic32m/lib/libpic32.a(pic32_data_init_core.o)
 .note          0x00000420       0x18 /opt/microchip/xc32/v5.00/bin/bin/../../lib/gcc/pic32m/13.2.1/../../../../pic32m/lib/libpic32.a(general-exception.o)
 .note          0x00000438       0x18 /opt/microchip/xc32/v5.00/bin/bin/../../lib/gcc/pic32m/13.2.1/../../../../pic32m/lib/libpic32.a(vector1.o)
 .note          0x00000450       0x18 /opt/microchip/xc32/v5.00/bin/bin/../../lib/gcc/pic32m/13.2.1/../../../../pic32m/lib/libpic32.a(vector2.o)
 .note          0x00000468       0x18 /opt/microchip/xc32/v5.00/bin/bin/../../lib/gcc/pic32m/13.2.1/../../../../pic32m/lib/libpic32.a(vector3.o)
 .note          0x00000480       0x18 /opt/microchip/xc32/v5.00/bin/bin/../../lib/gcc/pic32m/13.2.1/../../../../pic32m/lib/libpic32.a(vector4.o)
 .note          0x00000498       0x18 /opt/microchip/xc32/v5.00/bin/bin/../../lib/gcc/pic32m/13.2.1/../../../../pic32m/lib/libpic32.a(vector5.o)
 .note          0x000004b0       0x18 /opt/microchip/xc32/v5.00/bin/bin/../../lib/gcc/pic32m/13.2.1/../../../../pic32m/lib/libpic32.a(vector6.o)
 .note          0x000004c8       0x18 /opt/microchip/xc32/v5.00/bin/bin/../../lib/gcc/pic32m/13.2.1/../../../../pic32m/lib/libpic32.a(vector7.o)
 .note          0x000004e0       0x18 /opt/microchip/xc32/v5.00/bin/bin/../../lib/gcc/pic32m/13.2.1/../../../../pic32m/lib/libpic32.a(vector8.o)
 .note          0x000004f8       0x18 /opt/microchip/xc32/v5.00/bin/bin/../../lib/gcc/pic32m/13.2.1/../../../../pic32m/lib/libpic32.a(vector9.o)
 .note          0x00000510       0x18 /opt/microchip/xc32/v5.00/bin/bin/../../lib/gcc/pic32m/13.2.1/../../../../pic32m/lib/libpic32.a(vector10.o)
 .note          0x00000528       0x18 /opt/microchip/xc32/v5.00/bin/bin/../../lib/gcc/pic32m/13.2.1/../../../../pic32m/lib/libpic32.a(vector11.o)
 .note          0x00000540       0x18 /opt/microchip/xc32/v5.00/bin/bin/../../lib/gcc/pic32m/13.2.1/../../../../pic32m/lib/libpic32.a(vector12.o)
 .note          0x00000558       0x18 /opt/microchip/xc32/v5.00/bin/bin/../../lib/gcc/pic32m/13.2.1/../../../../pic32m/lib/libpic32.a(vector13.o)
 .note          0x00000570       0x18 /opt/microchip/xc32/v5.00/bin/bin/../../lib/gcc/pic32m/13.2.1/../../../../pic32m/lib/libpic32.a(vector14.o)
 .note          0x00000588       0x18 /opt/microchip/xc32/v5.00/bin/bin/../../lib/gcc/pic32m/13.2.1/../../../../pic32m/lib/libpic32.a(vector15.o)
 .note          0x000005a0       0x18 /opt/microchip/xc32/v5.00/bin/bin/../../lib/gcc/pic32m/13.2.1/../../../../pic32m/lib/libpic32.a(vector16.o)
 .note          0x000005b8       0x18 /opt/microchip/xc32/v5.00/bin/bin/../../lib/gcc/pic32m/13.2.1/../../../../pic32m/lib/libpic32.a(vector17.o)
 .note          0x000005d0       0x18 /opt/microchip/xc32/v5.00/bin/bin/../../lib/gcc/pic32m/13.2.1/../../../../pic32m/lib/libpic32.a(vector18.o)
 .note          0x000005e8       0x18 /opt/microchip/xc32/v5.00/bin/bin/../../lib/gcc/pic32m/13.2.1/../../../../pic32m/lib/libpic32.a(vector19.o)
 .note          0x00000600       0x18 /opt/microchip/xc32/v5.00/bin/bin/../../lib/gcc/pic32m/13.2.1/../../../../pic32m/lib/libpic32.a(vector20.o)
 .note          0x00000618       0x18 /opt/microchip/xc32/v5.00/bin/bin/../../lib/gcc/pic32m/13.2.1/../../../../pic32m/lib/libpic32.a(vector21.o)
 .note          0x00000630       0x18 /opt/microchip/xc32/v5.00/bin/bin/../../lib/gcc/pic32m/13.2.1/../../../../pic32m/lib/libpic32.a(vector22.o)
 .note          0x00000648       0x18 /opt/microchip/xc32/v5.00/bin/bin/../../lib/gcc/pic32m/13.2.1/../../../../pic32m/lib/libpic32.a(vector23.o)
 .note          0x00000660       0x18 /opt/microchip/xc32/v5.00/bin/bin/../../lib/gcc/pic32m/13.2.1/../../../../pic32m/lib/libpic32.a(vector24.o)
 .note          0x00000678       0x18 /opt/microchip/xc32/v5.00/bin/bin/../../lib/gcc/pic32m/13.2.1/../../../../pic32m/lib/libpic32.a(vector25.o)
 .note          0x00000690       0x18 /opt/microchip/xc32/v5.00/bin/bin/../../lib/gcc/pic32m/13.2.1/../../../../pic32m/lib/libpic32.a(vector26.o)
 .note          0x000006a8       0x18 /opt/microchip/xc32/v5.00/bin/bin/../../lib/gcc/pic32m/13.2.1/../../../../pic32m/lib/libpic32.a(vector27.o)
 .note          0x000006c0       0x18 /opt/microchip/xc32/v5.00/bin/bin/../../lib/gcc/pic32m/13.2.1/../../../../pic32m/lib/libpic32.a(vector28.o)
 .note          0x000006d8       0x18 /opt/microchip/xc32/v5.00/bin/bin/../../lib/gcc/pic32m/13.2.1/../../../../pic32m/lib/libpic32.a(vector29.o)
 .note          0x000006f0       0x18 /opt/microchip/xc32/v5.00/bin/bin/../../lib/gcc/pic32m/13.2.1/../../../../pic32m/lib/libpic32.a(vector30.o)
 .note          0x00000708       0x18 /opt/microchip/xc32/v5.00/bin/bin/../../lib/gcc/pic32m/13.2.1/../../../../pic32m/lib/libpic32.a(vector31.o)
 .note          0x00000720       0x18 /opt/microchip/xc32/v5.00/bin/bin/../../lib/gcc/pic32m/13.2.1/../../../../pic32m/lib/libpic32.a(vector32.o)
 .note          0x00000738       0x18 /opt/microchip/xc32/v5.00/bin/bin/../../lib/gcc/pic32m/13.2.1/../../../../pic32m/lib/libpic32.a(vector33.o)
 .note          0x00000750       0x18 /opt/microchip/xc32/v5.00/bin/bin/../../lib/gcc/pic32m/13.2.1/../../../../pic32m/lib/libpic32.a(vector34.o)
 .note          0x00000768       0x18 /opt/microchip/xc32/v5.00/bin/bin/../../lib/gcc/pic32m/13.2.1/../../../../pic32m/lib/libpic32.a(vector35.o)
 .note          0x00000780       0x18 /opt/microchip/xc32/v5.00/bin/bin/../../lib/gcc/pic32m/13.2.1/../../../../pic32m/lib/libpic32.a(vector36.o)
 .note          0x00000798       0x18 /opt/microchip/xc32/v5.00/bin/bin/../../lib/gcc/pic32m/13.2.1/../../../../pic32m/lib/libpic32.a(vector37.o)
 .note          0x000007b0       0x18 /opt/microchip/xc32/v5.00/bin/bin/../../lib/gcc/pic32m/13.2.1/../../../../pic32m/lib/libpic32.a(vector38.o)
 .note          0x000007c8       0x18 /opt/microchip/xc32/v5.00/bin/bin/../../lib/gcc/pic32m/13.2.1/../../../../pic32m/lib/libpic32.a(vector39.o)
 .note          0x000007e0       0x18 /opt/microchip/xc32/v5.00/bin/bin/../../lib/gcc/pic32m/13.2.1/../../../../pic32m/lib/libpic32.a(vector40.o)
 .note          0x000007f8       0x18 /opt/microchip/xc32/v5.00/bin/bin/../../lib/gcc/pic32m/13.2.1/../../../../pic32m/lib/libpic32.a(vector41.o)
 .note          0x00000810       0x18 /opt/microchip/xc32/v5.00/bin/bin/../../lib/gcc/pic32m/13.2.1/../../../../pic32m/lib/libpic32.a(vector42.o)
 .note          0x00000828       0x18 /opt/microchip/xc32/v5.00/bin/bin/../../lib/gcc/pic32m/13.2.1/../../../../pic32m/lib/libpic32.a(vector43.o)
 .note          0x00000840       0x18 /opt/microchip/xc32/v5.00/bin/bin/../../lib/gcc/pic32m/13.2.1/../../../../pic32m/lib/libpic32.a(default-general-exception-handler.o)
 .note          0x00000858       0x18 /opt/microchip/xc32/v5.00/bin/bin/../../lib/gcc/pic32m/13.2.1/../../../../pic32m/lib/libpic32.a(defaultinterrupt.o)
 .note          0x00000870       0x18 /opt/microchip/xc32/v5.00/bin/bin/../../lib/gcc/pic32m/13.2.1/../../../../pic32m/lib/libc-musl.a(assert.o)
 .note          0x00000888       0x18 /opt/microchip/xc32/v5.00/bin/bin/../../lib/gcc/pic32m/13.2.1/../../../../pic32m/lib/libc-musl.a(abort.o)
 .note          0x000008a0       0x18 /opt/microchip/xc32/v5.00/bin/bin/../../lib/gcc/pic32m/13.2.1/../../../../pic32m/lib/libc-musl.a(fprintf.o)
 .note          0x000008b8       0x18 /opt/microchip/xc32/v5.00/bin/bin/../../lib/gcc/pic32m/13.2.1/../../../../pic32m/lib/libc-musl.a(fflush.o)
 .note          0x000008d0       0x18 /opt/microchip/xc32/v5.00/bin/bin/../../lib/gcc/pic32m/13.2.1/../../../../pic32m/lib/libc-musl.a(vfprintf.o)
 .note          0x000008e8       0x18 /opt/microchip/xc32/v5.00/bin/bin/../../lib/gcc/pic32m/13.2.1/../../../../pic32m/lib/libc-musl.a(stderr.o)
 .note          0x00000900       0x18 /opt/microchip/xc32/v5.00/bin/bin/../../lib/gcc/pic32m/13.2.1/../../../../pic32m/lib/libc-musl.a(putchar.o)
 .note          0x00000918       0x18 /opt/microchip/xc32/v5.00/bin/bin/../../lib/gcc/pic32m/13.2.1/../../../../pic32m/lib/libc-musl.a(puts.o)
 .note          0x00000930       0x18 /opt/microchip/xc32/v5.00/bin/bin/../../lib/gcc/pic32m/13.2.1/../../../../pic32m/lib/libc-musl.a(_Exit.o)
 .note          0x00000948       0x18 /opt/microchip/xc32/v5.00/bin/bin/../../lib/gcc/pic32m/13.2.1/../../../../pic32m/lib/libc-musl.a(fputs.o)
 .note          0x00000960       0x18 /opt/microchip/xc32/v5.00/bin/bin/../../lib/gcc/pic32m/13.2.1/../../../../pic32m/lib/libc-musl.a(__io_fmt_needed.o)
 .note          0x00000978       0x18 /opt/microchip/xc32/v5.00/bin/bin/../../lib/gcc/pic32m/13.2.1/../../../../pic32m/lib/libc-musl.a(__io_init_needed.o)
 .note          0x00000990       0x18 /opt/microchip/xc32/v5.00/bin/bin/../../lib/gcc/pic32m/13.2.1/../../../../pic32m/lib/libc-musl.a(__out.o)
 .note          0x000009a8       0x18 /opt/microchip/xc32/v5.00/bin/bin/../../lib/gcc/pic32m/13.2.1/../../../../pic32m/lib/libc-musl.a(__pop_float.o)
 .note          0x000009c0       0x18 /opt/microchip/xc32/v5.00/bin/bin/../../lib/gcc/pic32m/13.2.1/../../../../pic32m/lib/libc-musl.a(__pop_int.o)
 .note          0x000009d8       0x18 /opt/microchip/xc32/v5.00/bin/bin/../../lib/gcc/pic32m/13.2.1/../../../../pic32m/lib/libc-musl.a(__pop_ptr.o)
 .note          0x000009f0       0x18 /opt/microchip/xc32/v5.00/bin/bin/../../lib/gcc/pic32m/13.2.1/../../../../pic32m/lib/libc-musl.a(__printf_core.o)
 .note          0x00000a08       0x18 /opt/microchip/xc32/v5.00/bin/bin/../../lib/gcc/pic32m/13.2.1/../../../../pic32m/lib/libc-musl.a(__stdio_close.o)
 .note          0x00000a20       0x18 /opt/microchip/xc32/v5.00/bin/bin/../../lib/gcc/pic32m/13.2.1/../../../../pic32m/lib/libc-musl.a(fwrite.o)
 .note          0x00000a38       0x18 /opt/microchip/xc32/v5.00/bin/bin/../../lib/gcc/pic32m/13.2.1/../../../../pic32m/lib/libc-musl.a(putc.o)
 .note          0x00000a50       0x18 /opt/microchip/xc32/v5.00/bin/bin/../../lib/gcc/pic32m/13.2.1/../../../../pic32m/lib/libc-musl.a(stdout.o)
 .note          0x00000a68       0x18 /opt/microchip/xc32/v5.00/bin/bin/../../lib/gcc/pic32m/13.2.1/../../../../pic32m/lib/libc-musl.a(atoi.o)
 .note          0x00000a80       0x18 /opt/microchip/xc32/v5.00/bin/bin/../../lib/gcc/pic32m/13.2.1/../../../../pic32m/lib/libc-musl.a(tolower.o)
 .note          0x00000a98       0x18 /opt/microchip/xc32/v5.00/bin/bin/../../lib/gcc/pic32m/13.2.1/../../../../pic32m/lib/libc-musl.a(__fmt_a.o)
 .note          0x00000ab0       0x18 /opt/microchip/xc32/v5.00/bin/bin/../../lib/gcc/pic32m/13.2.1/../../../../pic32m/lib/libc-musl.a(__fmt_d.o)
 .note          0x00000ac8       0x18 /opt/microchip/xc32/v5.00/bin/bin/../../lib/gcc/pic32m/13.2.1/../../../../pic32m/lib/libc-musl.a(__fmt_fp.o)
 .note          0x00000ae0       0x18 /opt/microchip/xc32/v5.00/bin/bin/../../lib/gcc/pic32m/13.2.1/../../../../pic32m/lib/libc-musl.a(__fmt_o.o)
 .note          0x00000af8       0x18 /opt/microchip/xc32/v5.00/bin/bin/../../lib/gcc/pic32m/13.2.1/../../../../pic32m/lib/libc-musl.a(__fmt_s.o)
 .note          0x00000b10       0x18 /opt/microchip/xc32/v5.00/bin/bin/../../lib/gcc/pic32m/13.2.1/../../../../pic32m/lib/libc-musl.a(__fmt_u.o)
 .note          0x00000b28       0x18 /opt/microchip/xc32/v5.00/bin/bin/../../lib/gcc/pic32m/13.2.1/../../../../pic32m/lib/libc-musl.a(__fmt_x.o)
 .note          0x00000b40       0x18 /opt/microchip/xc32/v5.00/bin/bin/../../lib/gcc/pic32m/13.2.1/../../../../pic32m/lib/libc-musl.a(__init_stdio.o)
 .note          0x00000b58       0x18 /opt/microchip/xc32/v5.00/bin/bin/../../lib/gcc/pic32m/13.2.1/../../../../pic32m/lib/libc-musl.a(__io_file_needed.o)
 .note          0x00000b70       0x18 /opt/microchip/xc32/v5.00/bin/bin/../../lib/gcc/pic32m/13.2.1/../../../../pic32m/lib/libc-musl.a(toupper.o)
 .note          0x00000b88       0x18 /opt/microchip/xc32/v5.00/bin/bin/../../lib/gcc/pic32m/13.2.1/../../../../pic32m/lib/libc-musl.a(__cvt_u.o)
 .note          0x00000ba0       0x18 /opt/microchip/xc32/v5.00/bin/bin/../../lib/gcc/pic32m/13.2.1/../../../../pic32m/lib/libm.a(floor32.o)
 .note          0x00000bb8       0x18 /opt/microchip/xc32/v5.00/bin/bin/../../lib/gcc/pic32m/13.2.1/../../../../pic32m/lib/libm.a(dp32div.o)
 .note          0x00000bd0       0x18 /opt/microchip/xc32/v5.00/bin/bin/../../lib/gcc/pic32m/13.2.1/../../../../pic32m/lib/libm.a(dp32mul.o)
 .note          0x00000be8       0x18 /opt/microchip/xc32/v5.00/bin/bin/../../lib/gcc/pic32m/13.2.1/../../../../pic32m/lib/libm.a(dp32subadd.o)
 .note          0x00000c00       0x18 /opt/microchip/xc32/v5.00/bin/bin/../../lib/gcc/pic32m/13.2.1/../../../../pic32m/lib/libm.a(dpcmp.o)
 .note          0x00000c18       0x18 /opt/microchip/xc32/v5.00/bin/bin/../../lib/gcc/pic32m/13.2.1/../../../../pic32m/lib/libm.a(dpcmplt.o)
 .note          0x00000c30       0x18 /opt/microchip/xc32/v5.00/bin/bin/../../lib/gcc/pic32m/13.2.1/../../../../pic32m/lib/libm.a(dptoli.o)
 .note          0x00000c48       0x18 /opt/microchip/xc32/v5.00/bin/bin/../../lib/gcc/pic32m/13.2.1/../../../../pic32m/lib/libm.a(fp32div.o)
 .note          0x00000c60       0x18 /opt/microchip/xc32/v5.00/bin/bin/../../lib/gcc/pic32m/13.2.1/../../../../pic32m/lib/libm.a(fp32mul.o)
 .note          0x00000c78       0x18 /opt/microchip/xc32/v5.00/bin/bin/../../lib/gcc/pic32m/13.2.1/../../../../pic32m/lib/libm.a(fp32subadd.o)
 .note          0x00000c90       0x18 /opt/microchip/xc32/v5.00/bin/bin/../../lib/gcc/pic32m/13.2.1/../../../../pic32m/lib/libm.a(sitofp.o)
 .note          0x00000ca8       0x18 /opt/microchip/xc32/v5.00/bin/bin/../../lib/gcc/pic32m/13.2.1/../../../../pic32m/lib/libm-musl.a(fma.o)
 .note          0x00000cc0       0x18 /opt/microchip/xc32/v5.00/bin/bin/../../lib/gcc/pic32m/13.2.1/../../../../pic32m/lib/libm-musl.a(scalbn.o)
 .note          0x00000cd8       0x18 /opt/microchip/xc32/v5.00/bin/bin/../../lib/gcc/pic32m/13.2.1/../../../../pic32m/lib/libpic32.a(_exit.o)
 .note          0x00000cf0       0x18 /opt/microchip/xc32/v5.00/bin/bin/../../lib/gcc/pic32m/13.2.1/../../../../pic32m/lib/libpic32.a(write.o)
 .note          0x00000d08       0x18 /opt/microchip/xc32/v5.00/bin/bin/../../lib/gcc/pic32m/13.2.1/../../../../pic32m/lib/libpic32.a(lseek.o)
 .note          0x00000d20       0x18 /opt/microchip/xc32/v5.00/bin/bin/../../lib/gcc/pic32m/13.2.1/../../../../pic32m/lib/libpic32.a(close.o)
 .note          0x00000d38       0x18 /opt/microchip/xc32/v5.00/bin/bin/../../lib/gcc/pic32m/13.2.1/../../../../pic32m/lib/libpic32.a(errno.o)
 .note          0x00000d50       0x18 /opt/microchip/xc32/v5.00/bin/bin/../../lib/gcc/pic32m/13.2.1/../../../../pic32m/lib/libc-size-musl.a(memcpy.o)
 .note          0x00000d68       0x18 /opt/microchip/xc32/v5.00/bin/bin/../../lib/gcc/pic32m/13.2.1/../../../../pic32m/lib/libc-size-musl.a(memset.o)
 .note          0x00000d80       0x18 /opt/microchip/xc32/v5.00/bin/bin/../../lib/gcc/pic32m/13.2.1/../../../../pic32m/lib/libc-size-musl.a(strlen.o)
 .note          0x00000d98       0x18 /opt/microchip/xc32/v5.00/bin/bin/../../lib/gcc/pic32m/13.2.1/../../../../pic32m/lib/libc-size-musl.a(strcpy.o)
 .note          0x00000db0       0x18 /opt/microchip/xc32/v5.00/bin/bin/../../lib/gcc/pic32m/13.2.1/../../../../pic32m/lib/libc-size-musl.a(stpcpy.o)
 .note          0x00000dc8       0x18 /opt/microchip/xc32/v5.00/bin/bin/../../lib/gcc/pic32m/13.2.1/../../../../pic32m/lib/libm.a(dptofp.o)
 .note          0x00000de0       0x18 /opt/microchip/xc32/v5.00/bin/bin/../../lib/gcc/pic32m/13.2.1/../../../../pic32m/lib/libm.a(fptodp.o)
 .note          0x00000df8       0x18 /opt/microchip/xc32/v5.00/bin/bin/../../lib/gcc/pic32m/13.2.1/../../../../pic32m/lib/libe.a(_floatdidf.o)
 .note          0x00000e10       0x18 /opt/microchip/xc32/v5.00/bin/bin/../../lib/gcc/pic32m/13.2.1/libgcc.a(_lshrdi3.o)
 .note          0x00000e28       0x18 /opt/microchip/xc32/v5.00/bin/bin/../../lib/gcc/pic32m/13.2.1/libgcc.a(_ashldi3.o)
 .note          0x00000e40       0x18 /opt/microchip/xc32/v5.00/bin/bin/../../lib/gcc/pic32m/13.2.1/libgcc.a(_udivdi3.o)
 .note          0x00000e58       0x18 /opt/microchip/xc32/v5.00/bin/bin/../../lib/gcc/pic32m/13.2.1/libgcc.a(_umoddi3.o)
 .note          0x00000e70       0x18 /opt/microchip/xc32/v5.00/bin/bin/../../lib/gcc/pic32m/13.2.1/../../../../pic32m/lib/libpic32.a(pic32_data_init_clear.o)
 .note          0x00000e88       0x18 /opt/microchip/xc32/v5.00/bin/bin/../../lib/gcc/pic32m/13.2.1/../../../../pic32m/lib/libpic32.a(pic32_data_init_copy.o)

.reginfo        0x00000000       0x18
 .reginfo       0x00000000       0x18 build/default/production/FrameworkSource/ES_CheckEvents.o

.rodata.str1.4%1

.rodata.str1.4%2

.rodata.str1.4%3

.rodata.cst8%4

.rodata.cst8%5

.rodata.cst8%6

.data           0xa0000078       0xd0
 .data          0xa0000078       0x68 /opt/microchip/xc32/v5.00/bin/bin/../../lib/gcc/pic32m/13.2.1/../../../../pic32m/lib/libc-musl.a(stderr.o)
                0xa0000078                __stderr_used
 .data          0xa00000e0       0x68 /opt/microchip/xc32/v5.00/bin/bin/../../lib/gcc/pic32m/13.2.1/../../../../pic32m/lib/libc-musl.a(stdout.o)
                0xa00000e0                __stdout_used

.data._stderr   0xa0000148        0x4
 .data._stderr  0xa0000148        0x4 /opt/microchip/xc32/v5.00/bin/bin/../../lib/gcc/pic32m/13.2.1/../../../../pic32m/lib/libc-musl.a(stderr.o)
                0xa0000148                _stderr

.data._stdout   0xa000014c        0x4
 .data._stdout  0xa000014c        0x4 /opt/microchip/xc32/v5.00/bin/bin/../../lib/gcc/pic32m/13.2.1/../../../../pic32m/lib/libc-musl.a(stdout.o)
                0xa000014c                _stdout

.data%z1        0x00000000        0x0
 .data          0x00000000        0x0 /opt/microchip/xc32/v5.00/bin/bin/../../lib/gcc/pic32m/13.2.1/../../../../pic32m/lib/libpic32.a(pic32_data_init_copy.o)

.data%z2        0x00000000        0x0
 .data          0x00000000        0x0 /opt/microchip/xc32/v5.00/bin/bin/../../lib/gcc/pic32m/13.2.1/../../../../pic32m/lib/libpic32.a(pic32_data_init_clear.o)

.data%z3        0x00000000        0x0
 .data          0x00000000        0x0 /opt/microchip/xc32/v5.00/bin/bin/../../lib/gcc/pic32m/13.2.1/libgcc.a(_umoddi3.o)

.data%z4        0x00000000        0x0
 .data          0x00000000        0x0 /opt/microchip/xc32/v5.00/bin/bin/../../lib/gcc/pic32m/13.2.1/libgcc.a(_udivdi3.o)

.data%z5        0x00000000        0x0
 .data          0x00000000        0x0 /opt/microchip/xc32/v5.00/bin/bin/../../lib/gcc/pic32m/13.2.1/libgcc.a(_ashldi3.o)

.data%z6        0x00000000        0x0
 .data          0x00000000        0x0 /opt/microchip/xc32/v5.00/bin/bin/../../lib/gcc/pic32m/13.2.1/libgcc.a(_lshrdi3.o)

.data%z7        0x00000000        0x0
 .data          0x00000000        0x0 /opt/microchip/xc32/v5.00/bin/bin/../../lib/gcc/pic32m/13.2.1/../../../../pic32m/lib/libe.a(_floatdidf.o)

.data%z8        0x00000000        0x0
 .data          0x00000000        0x0 /opt/microchip/xc32/v5.00/bin/bin/../../lib/gcc/pic32m/13.2.1/../../../../pic32m/lib/libm.a(fptodp.o)

.data%z9        0x00000000        0x0
 .data          0x00000000        0x0 /opt/microchip/xc32/v5.00/bin/bin/../../lib/gcc/pic32m/13.2.1/../../../../pic32m/lib/libm.a(dptofp.o)

.data%z10       0x00000000        0x0
 .data          0x00000000        0x0 /opt/microchip/xc32/v5.00/bin/bin/../../lib/gcc/pic32m/13.2.1/../../../../pic32m/lib/libc-size-musl.a(stpcpy.o)

.data%z11       0x00000000        0x0
 .data          0x00000000        0x0 /opt/microchip/xc32/v5.00/bin/bin/../../lib/gcc/pic32m/13.2.1/../../../../pic32m/lib/libc-size-musl.a(strcpy.o)

.data%z12       0x00000000        0x0
 .data          0x00000000        0x0 /opt/microchip/xc32/v5.00/bin/bin/../../lib/gcc/pic32m/13.2.1/../../../../pic32m/lib/libc-size-musl.a(strlen.o)

.data%z13       0x00000000        0x0
 .data          0x00000000        0x0 /opt/microchip/xc32/v5.00/bin/bin/../../lib/gcc/pic32m/13.2.1/../../../../pic32m/lib/libc-size-musl.a(memset.o)

.data%z14       0x00000000        0x0
 .data          0x00000000        0x0 /opt/microchip/xc32/v5.00/bin/bin/../../lib/gcc/pic32m/13.2.1/../../../../pic32m/lib/libc-size-musl.a(memcpy.o)

.data%z15       0x00000000        0x0
 .data          0x00000000        0x0 /opt/microchip/xc32/v5.00/bin/bin/../../lib/gcc/pic32m/13.2.1/../../../../pic32m/lib/libpic32.a(errno.o)

.data%z16       0x00000000        0x0
 .data          0x00000000        0x0 /opt/microchip/xc32/v5.00/bin/bin/../../lib/gcc/pic32m/13.2.1/../../../../pic32m/lib/libpic32.a(close.o)

.data%z17       0x00000000        0x0
 .data          0x00000000        0x0 /opt/microchip/xc32/v5.00/bin/bin/../../lib/gcc/pic32m/13.2.1/../../../../pic32m/lib/libpic32.a(lseek.o)

.data%z18       0x00000000        0x0
 .data          0x00000000        0x0 /opt/microchip/xc32/v5.00/bin/bin/../../lib/gcc/pic32m/13.2.1/../../../../pic32m/lib/libpic32.a(write.o)

.data%z19       0x00000000        0x0
 .data          0x00000000        0x0 /opt/microchip/xc32/v5.00/bin/bin/../../lib/gcc/pic32m/13.2.1/../../../../pic32m/lib/libpic32.a(_exit.o)

.data%z20       0x00000000        0x0
 .data          0x00000000        0x0 /opt/microchip/xc32/v5.00/bin/bin/../../lib/gcc/pic32m/13.2.1/../../../../pic32m/lib/libm-musl.a(scalbn.o)

.data%z21       0x00000000        0x0
 .data          0x00000000        0x0 /opt/microchip/xc32/v5.00/bin/bin/../../lib/gcc/pic32m/13.2.1/../../../../pic32m/lib/libm-musl.a(fma.o)

.data%z22       0x00000000        0x0
 .data          0x00000000        0x0 /opt/microchip/xc32/v5.00/bin/bin/../../lib/gcc/pic32m/13.2.1/../../../../pic32m/lib/libm.a(sitofp.o)

.data%z23       0x00000000        0x0
 .data          0x00000000        0x0 /opt/microchip/xc32/v5.00/bin/bin/../../lib/gcc/pic32m/13.2.1/../../../../pic32m/lib/libm.a(fp32subadd.o)

.data%z24       0x00000000        0x0
 .data          0x00000000        0x0 /opt/microchip/xc32/v5.00/bin/bin/../../lib/gcc/pic32m/13.2.1/../../../../pic32m/lib/libm.a(fp32mul.o)

.data%z25       0x00000000        0x0
 .data          0x00000000        0x0 /opt/microchip/xc32/v5.00/bin/bin/../../lib/gcc/pic32m/13.2.1/../../../../pic32m/lib/libm.a(fp32div.o)

.data%z26       0x00000000        0x0
 .data          0x00000000        0x0 /opt/microchip/xc32/v5.00/bin/bin/../../lib/gcc/pic32m/13.2.1/../../../../pic32m/lib/libm.a(dptoli.o)

.data%z27       0x00000000        0x0
 .data          0x00000000        0x0 /opt/microchip/xc32/v5.00/bin/bin/../../lib/gcc/pic32m/13.2.1/../../../../pic32m/lib/libm.a(dpcmplt.o)

.data%z28       0x00000000        0x0
 .data          0x00000000        0x0 /opt/microchip/xc32/v5.00/bin/bin/../../lib/gcc/pic32m/13.2.1/../../../../pic32m/lib/libm.a(dpcmp.o)

.data%z29       0x00000000        0x0
 .data          0x00000000        0x0 /opt/microchip/xc32/v5.00/bin/bin/../../lib/gcc/pic32m/13.2.1/../../../../pic32m/lib/libm.a(dp32subadd.o)

.data%z30       0x00000000        0x0
 .data          0x00000000        0x0 /opt/microchip/xc32/v5.00/bin/bin/../../lib/gcc/pic32m/13.2.1/../../../../pic32m/lib/libm.a(dp32mul.o)

.data%z31       0x00000000        0x0
 .data          0x00000000        0x0 /opt/microchip/xc32/v5.00/bin/bin/../../lib/gcc/pic32m/13.2.1/../../../../pic32m/lib/libm.a(dp32div.o)

.data%z32       0x00000000        0x0
 .data          0x00000000        0x0 /opt/microchip/xc32/v5.00/bin/bin/../../lib/gcc/pic32m/13.2.1/../../../../pic32m/lib/libm.a(floor32.o)

.data%z33       0x00000000        0x0
 .data          0x00000000        0x0 /opt/microchip/xc32/v5.00/bin/bin/../../lib/gcc/pic32m/13.2.1/../../../../pic32m/lib/libc-musl.a(__cvt_u.o)

.data%z34       0x00000000        0x0
 .data          0x00000000        0x0 /opt/microchip/xc32/v5.00/bin/bin/../../lib/gcc/pic32m/13.2.1/../../../../pic32m/lib/libc-musl.a(toupper.o)

.data%z35       0x00000000        0x0
 .data          0x00000000        0x0 /opt/microchip/xc32/v5.00/bin/bin/../../lib/gcc/pic32m/13.2.1/../../../../pic32m/lib/libc-musl.a(__io_file_needed.o)

.data%z36       0x00000000        0x0
 .data          0x00000000        0x0 /opt/microchip/xc32/v5.00/bin/bin/../../lib/gcc/pic32m/13.2.1/../../../../pic32m/lib/libc-musl.a(__init_stdio.o)

.data%z37       0x00000000        0x0
 .data          0x00000000        0x0 /opt/microchip/xc32/v5.00/bin/bin/../../lib/gcc/pic32m/13.2.1/../../../../pic32m/lib/libc-musl.a(__fmt_x.o)

.data%z38       0x00000000        0x0
 .data          0x00000000        0x0 /opt/microchip/xc32/v5.00/bin/bin/../../lib/gcc/pic32m/13.2.1/../../../../pic32m/lib/libc-musl.a(__fmt_u.o)

.data%z39       0x00000000        0x0
 .data          0x00000000        0x0 /opt/microchip/xc32/v5.00/bin/bin/../../lib/gcc/pic32m/13.2.1/../../../../pic32m/lib/libc-musl.a(__fmt_s.o)

.data%z40       0x00000000        0x0
 .data          0x00000000        0x0 /opt/microchip/xc32/v5.00/bin/bin/../../lib/gcc/pic32m/13.2.1/../../../../pic32m/lib/libc-musl.a(__fmt_o.o)

.data%z41       0x00000000        0x0
 .data          0x00000000        0x0 /opt/microchip/xc32/v5.00/bin/bin/../../lib/gcc/pic32m/13.2.1/../../../../pic32m/lib/libc-musl.a(__fmt_fp.o)

.data%z42       0x00000000        0x0
 .data          0x00000000        0x0 /opt/microchip/xc32/v5.00/bin/bin/../../lib/gcc/pic32m/13.2.1/../../../../pic32m/lib/libc-musl.a(__fmt_d.o)

.data%z43       0x00000000        0x0
 .data          0x00000000        0x0 /opt/microchip/xc32/v5.00/bin/bin/../../lib/gcc/pic32m/13.2.1/../../../../pic32m/lib/libc-musl.a(__fmt_a.o)

.data%z44       0x00000000        0x0
 .data          0x00000000        0x0 /opt/microchip/xc32/v5.00/bin/bin/../../lib/gcc/pic32m/13.2.1/../../../../pic32m/lib/libc-musl.a(tolower.o)

.data%z45       0x00000000        0x0
 .data          0x00000000        0x0 /opt/microchip/xc32/v5.00/bin/bin/../../lib/gcc/pic32m/13.2.1/../../../../pic32m/lib/libc-musl.a(atoi.o)

.data%z46       0x00000000        0x0
 .data          0x00000000        0x0 /opt/microchip/xc32/v5.00/bin/bin/../../lib/gcc/pic32m/13.2.1/../../../../pic32m/lib/libc-musl.a(putc.o)

.data%z47       0x00000000        0x0
 .data          0x00000000        0x0 /opt/microchip/xc32/v5.00/bin/bin/../../lib/gcc/pic32m/13.2.1/../../../../pic32m/lib/libc-musl.a(fwrite.o)

.data%z48       0x00000000        0x0
 .data          0x00000000        0x0 /opt/microchip/xc32/v5.00/bin/bin/../../lib/gcc/pic32m/13.2.1/../../../../pic32m/lib/libc-musl.a(__stdio_close.o)

.data%z49       0x00000000        0x0
 .data          0x00000000        0x0 /opt/microchip/xc32/v5.00/bin/bin/../../lib/gcc/pic32m/13.2.1/../../../../pic32m/lib/libc-musl.a(__printf_core.o)

.data%z50       0x00000000        0x0
 .data          0x00000000        0x0 /opt/microchip/xc32/v5.00/bin/bin/../../lib/gcc/pic32m/13.2.1/../../../../pic32m/lib/libc-musl.a(__pop_ptr.o)

.data%z51       0x00000000        0x0
 .data          0x00000000        0x0 /opt/microchip/xc32/v5.00/bin/bin/../../lib/gcc/pic32m/13.2.1/../../../../pic32m/lib/libc-musl.a(__pop_int.o)

.data%z52       0x00000000        0x0
 .data          0x00000000        0x0 /opt/microchip/xc32/v5.00/bin/bin/../../lib/gcc/pic32m/13.2.1/../../../../pic32m/lib/libc-musl.a(__pop_float.o)

.data%z53       0x00000000        0x0
 .data          0x00000000        0x0 /opt/microchip/xc32/v5.00/bin/bin/../../lib/gcc/pic32m/13.2.1/../../../../pic32m/lib/libc-musl.a(__out.o)

.data%z54       0x00000000        0x0
 .data          0x00000000        0x0 /opt/microchip/xc32/v5.00/bin/bin/../../lib/gcc/pic32m/13.2.1/../../../../pic32m/lib/libc-musl.a(__io_init_needed.o)

.data%z55       0x00000000        0x0
 .data          0x00000000        0x0 /opt/microchip/xc32/v5.00/bin/bin/../../lib/gcc/pic32m/13.2.1/../../../../pic32m/lib/libc-musl.a(__io_fmt_needed.o)

.data%z56       0x00000000        0x0
 .data          0x00000000        0x0 /opt/microchip/xc32/v5.00/bin/bin/../../lib/gcc/pic32m/13.2.1/../../../../pic32m/lib/libc-musl.a(fputs.o)

.data%z57       0x00000000        0x0
 .data          0x00000000        0x0 /opt/microchip/xc32/v5.00/bin/bin/../../lib/gcc/pic32m/13.2.1/../../../../pic32m/lib/libc-musl.a(_Exit.o)

.data%z58       0x00000000        0x0
 .data          0x00000000        0x0 /opt/microchip/xc32/v5.00/bin/bin/../../lib/gcc/pic32m/13.2.1/../../../../pic32m/lib/libc-musl.a(puts.o)

.data%z59       0x00000000        0x0
 .data          0x00000000        0x0 /opt/microchip/xc32/v5.00/bin/bin/../../lib/gcc/pic32m/13.2.1/../../../../pic32m/lib/libc-musl.a(putchar.o)

.data%z60       0x00000000        0x0
 .data          0x00000000        0x0 /opt/microchip/xc32/v5.00/bin/bin/../../lib/gcc/pic32m/13.2.1/../../../../pic32m/lib/libc-musl.a(vfprintf.o)

.data%z61       0x00000000        0x0
 .data          0x00000000        0x0 /opt/microchip/xc32/v5.00/bin/bin/../../lib/gcc/pic32m/13.2.1/../../../../pic32m/lib/libc-musl.a(fflush.o)

.data%z62       0x00000000        0x0
 .data          0x00000000        0x0 /opt/microchip/xc32/v5.00/bin/bin/../../lib/gcc/pic32m/13.2.1/../../../../pic32m/lib/libc-musl.a(fprintf.o)

.data%z63       0x00000000        0x0
 .data          0x00000000        0x0 /opt/microchip/xc32/v5.00/bin/bin/../../lib/gcc/pic32m/13.2.1/../../../../pic32m/lib/libc-musl.a(abort.o)

.data%z64       0x00000000        0x0
 .data          0x00000000        0x0 /opt/microchip/xc32/v5.00/bin/bin/../../lib/gcc/pic32m/13.2.1/../../../../pic32m/lib/libc-musl.a(assert.o)

.data%z65       0x00000000        0x0
 .data          0x00000000        0x0 /opt/microchip/xc32/v5.00/bin/bin/../../lib/gcc/pic32m/13.2.1/../../../../pic32m/lib/libpic32.a(defaultinterrupt.o)

.data%z66       0x00000000        0x0
 .data          0x00000000        0x0 /opt/microchip/xc32/v5.00/bin/bin/../../lib/gcc/pic32m/13.2.1/../../../../pic32m/lib/libpic32.a(default-general-exception-handler.o)

.data%z67       0x00000000        0x0
 .data          0x00000000        0x0 /opt/microchip/xc32/v5.00/bin/bin/../../lib/gcc/pic32m/13.2.1/../../../../pic32m/lib/libpic32.a(vector43.o)

.data%z68       0x00000000        0x0
 .data          0x00000000        0x0 /opt/microchip/xc32/v5.00/bin/bin/../../lib/gcc/pic32m/13.2.1/../../../../pic32m/lib/libpic32.a(vector42.o)

.data%z69       0x00000000        0x0
 .data          0x00000000        0x0 /opt/microchip/xc32/v5.00/bin/bin/../../lib/gcc/pic32m/13.2.1/../../../../pic32m/lib/libpic32.a(vector41.o)

.data%z70       0x00000000        0x0
 .data          0x00000000        0x0 /opt/microchip/xc32/v5.00/bin/bin/../../lib/gcc/pic32m/13.2.1/../../../../pic32m/lib/libpic32.a(vector40.o)

.data%z71       0x00000000        0x0
 .data          0x00000000        0x0 /opt/microchip/xc32/v5.00/bin/bin/../../lib/gcc/pic32m/13.2.1/../../../../pic32m/lib/libpic32.a(vector39.o)

.data%z72       0x00000000        0x0
 .data          0x00000000        0x0 /opt/microchip/xc32/v5.00/bin/bin/../../lib/gcc/pic32m/13.2.1/../../../../pic32m/lib/libpic32.a(vector38.o)

.data%z73       0x00000000        0x0
 .data          0x00000000        0x0 /opt/microchip/xc32/v5.00/bin/bin/../../lib/gcc/pic32m/13.2.1/../../../../pic32m/lib/libpic32.a(vector37.o)

.data%z74       0x00000000        0x0
 .data          0x00000000        0x0 /opt/microchip/xc32/v5.00/bin/bin/../../lib/gcc/pic32m/13.2.1/../../../../pic32m/lib/libpic32.a(vector36.o)

.data%z75       0x00000000        0x0
 .data          0x00000000        0x0 /opt/microchip/xc32/v5.00/bin/bin/../../lib/gcc/pic32m/13.2.1/../../../../pic32m/lib/libpic32.a(vector35.o)

.data%z76       0x00000000        0x0
 .data          0x00000000        0x0 /opt/microchip/xc32/v5.00/bin/bin/../../lib/gcc/pic32m/13.2.1/../../../../pic32m/lib/libpic32.a(vector34.o)

.data%z77       0x00000000        0x0
 .data          0x00000000        0x0 /opt/microchip/xc32/v5.00/bin/bin/../../lib/gcc/pic32m/13.2.1/../../../../pic32m/lib/libpic32.a(vector33.o)

.data%z78       0x00000000        0x0
 .data          0x00000000        0x0 /opt/microchip/xc32/v5.00/bin/bin/../../lib/gcc/pic32m/13.2.1/../../../../pic32m/lib/libpic32.a(vector32.o)

.data%z79       0x00000000        0x0
 .data          0x00000000        0x0 /opt/microchip/xc32/v5.00/bin/bin/../../lib/gcc/pic32m/13.2.1/../../../../pic32m/lib/libpic32.a(vector31.o)

.data%z80       0x00000000        0x0
 .data          0x00000000        0x0 /opt/microchip/xc32/v5.00/bin/bin/../../lib/gcc/pic32m/13.2.1/../../../../pic32m/lib/libpic32.a(vector30.o)

.data%z81       0x00000000        0x0
 .data          0x00000000        0x0 /opt/microchip/xc32/v5.00/bin/bin/../../lib/gcc/pic32m/13.2.1/../../../../pic32m/lib/libpic32.a(vector29.o)

.data%z82       0x00000000        0x0
 .data          0x00000000        0x0 /opt/microchip/xc32/v5.00/bin/bin/../../lib/gcc/pic32m/13.2.1/../../../../pic32m/lib/libpic32.a(vector28.o)

.data%z83       0x00000000        0x0
 .data          0x00000000        0x0 /opt/microchip/xc32/v5.00/bin/bin/../../lib/gcc/pic32m/13.2.1/../../../../pic32m/lib/libpic32.a(vector27.o)

.data%z84       0x00000000        0x0
 .data          0x00000000        0x0 /opt/microchip/xc32/v5.00/bin/bin/../../lib/gcc/pic32m/13.2.1/../../../../pic32m/lib/libpic32.a(vector26.o)

.data%z85       0x00000000        0x0
 .data          0x00000000        0x0 /opt/microchip/xc32/v5.00/bin/bin/../../lib/gcc/pic32m/13.2.1/../../../../pic32m/lib/libpic32.a(vector25.o)

.data%z86       0x00000000        0x0
 .data          0x00000000        0x0 /opt/microchip/xc32/v5.00/bin/bin/../../lib/gcc/pic32m/13.2.1/../../../../pic32m/lib/libpic32.a(vector24.o)

.data%z87       0x00000000        0x0
 .data          0x00000000        0x0 /opt/microchip/xc32/v5.00/bin/bin/../../lib/gcc/pic32m/13.2.1/../../../../pic32m/lib/libpic32.a(vector23.o)

.data%z88       0x00000000        0x0
 .data          0x00000000        0x0 /opt/microchip/xc32/v5.00/bin/bin/../../lib/gcc/pic32m/13.2.1/../../../../pic32m/lib/libpic32.a(vector22.o)

.data%z89       0x00000000        0x0
 .data          0x00000000        0x0 /opt/microchip/xc32/v5.00/bin/bin/../../lib/gcc/pic32m/13.2.1/../../../../pic32m/lib/libpic32.a(vector21.o)

.data%z90       0x00000000        0x0
 .data          0x00000000        0x0 /opt/microchip/xc32/v5.00/bin/bin/../../lib/gcc/pic32m/13.2.1/../../../../pic32m/lib/libpic32.a(vector20.o)

.data%z91       0x00000000        0x0
 .data          0x00000000        0x0 /opt/microchip/xc32/v5.00/bin/bin/../../lib/gcc/pic32m/13.2.1/../../../../pic32m/lib/libpic32.a(vector19.o)

.data%z92       0x00000000        0x0
 .data          0x00000000        0x0 /opt/microchip/xc32/v5.00/bin/bin/../../lib/gcc/pic32m/13.2.1/../../../../pic32m/lib/libpic32.a(vector18.o)

.data%z93       0x00000000        0x0
 .data          0x00000000        0x0 /opt/microchip/xc32/v5.00/bin/bin/../../lib/gcc/pic32m/13.2.1/../../../../pic32m/lib/libpic32.a(vector17.o)

.data%z94       0x00000000        0x0
 .data          0x00000000        0x0 /opt/microchip/xc32/v5.00/bin/bin/../../lib/gcc/pic32m/13.2.1/../../../../pic32m/lib/libpic32.a(vector16.o)

.data%z95       0x00000000        0x0
 .data          0x00000000        0x0 /opt/microchip/xc32/v5.00/bin/bin/../../lib/gcc/pic32m/13.2.1/../../../../pic32m/lib/libpic32.a(vector15.o)

.data%z96       0x00000000        0x0
 .data          0x00000000        0x0 /opt/microchip/xc32/v5.00/bin/bin/../../lib/gcc/pic32m/13.2.1/../../../../pic32m/lib/libpic32.a(vector14.o)

.data%z97       0x00000000        0x0
 .data          0x00000000        0x0 /opt/microchip/xc32/v5.00/bin/bin/../../lib/gcc/pic32m/13.2.1/../../../../pic32m/lib/libpic32.a(vector13.o)

.data%z98       0x00000000        0x0
 .data          0x00000000        0x0 /opt/microchip/xc32/v5.00/bin/bin/../../lib/gcc/pic32m/13.2.1/../../../../pic32m/lib/libpic32.a(vector12.o)

.data%z99       0x00000000        0x0
 .data          0x00000000        0x0 /opt/microchip/xc32/v5.00/bin/bin/../../lib/gcc/pic32m/13.2.1/../../../../pic32m/lib/libpic32.a(vector11.o)

.data%z100      0x00000000        0x0
 .data          0x00000000        0x0 /opt/microchip/xc32/v5.00/bin/bin/../../lib/gcc/pic32m/13.2.1/../../../../pic32m/lib/libpic32.a(vector10.o)

.data%z101      0x00000000        0x0
 .data          0x00000000        0x0 /opt/microchip/xc32/v5.00/bin/bin/../../lib/gcc/pic32m/13.2.1/../../../../pic32m/lib/libpic32.a(vector9.o)

.data%z102      0x00000000        0x0
 .data          0x00000000        0x0 /opt/microchip/xc32/v5.00/bin/bin/../../lib/gcc/pic32m/13.2.1/../../../../pic32m/lib/libpic32.a(vector8.o)

.data%z103      0x00000000        0x0
 .data          0x00000000        0x0 /opt/microchip/xc32/v5.00/bin/bin/../../lib/gcc/pic32m/13.2.1/../../../../pic32m/lib/libpic32.a(vector7.o)

.data%z104      0x00000000        0x0
 .data          0x00000000        0x0 /opt/microchip/xc32/v5.00/bin/bin/../../lib/gcc/pic32m/13.2.1/../../../../pic32m/lib/libpic32.a(vector6.o)

.data%z105      0x00000000        0x0
 .data          0x00000000        0x0 /opt/microchip/xc32/v5.00/bin/bin/../../lib/gcc/pic32m/13.2.1/../../../../pic32m/lib/libpic32.a(vector5.o)

.data%z106      0x00000000        0x0
 .data          0x00000000        0x0 /opt/microchip/xc32/v5.00/bin/bin/../../lib/gcc/pic32m/13.2.1/../../../../pic32m/lib/libpic32.a(vector4.o)

.data%z107      0x00000000        0x0
 .data          0x00000000        0x0 /opt/microchip/xc32/v5.00/bin/bin/../../lib/gcc/pic32m/13.2.1/../../../../pic32m/lib/libpic32.a(vector3.o)

.data%z108      0x00000000        0x0
 .data          0x00000000        0x0 /opt/microchip/xc32/v5.00/bin/bin/../../lib/gcc/pic32m/13.2.1/../../../../pic32m/lib/libpic32.a(vector2.o)

.data%z109      0x00000000        0x0
 .data          0x00000000        0x0 /opt/microchip/xc32/v5.00/bin/bin/../../lib/gcc/pic32m/13.2.1/../../../../pic32m/lib/libpic32.a(vector1.o)

.data%z110      0x00000000        0x0
 .data          0x00000000        0x0 /opt/microchip/xc32/v5.00/bin/bin/../../lib/gcc/pic32m/13.2.1/../../../../pic32m/lib/libpic32.a(general-exception.o)

.data%z111      0x00000000        0x0
 .data          0x00000000        0x0 /opt/microchip/xc32/v5.00/bin/bin/../../lib/gcc/pic32m/13.2.1/../../../../pic32m/lib/libpic32.a(pic32_data_init_core.o)

.data%z112      0x00000000        0x0
 .data          0x00000000        0x0 /opt/microchip/xc32/v5.00/bin/bin/../../lib/gcc/pic32m/13.2.1/../../../../pic32m/lib/libpic32.a(xc32_uart.o)

.data%z113      0x00000000        0x0
 .data          0x00000000        0x0 /opt/microchip/xc32/v5.00/bin/bin/../../lib/gcc/pic32m/13.2.1/../../../../pic32m/lib/libpic32.a(default-nmi-handler.o)

.data%z114      0x00000000        0x0
 .data          0x00000000        0x0 /opt/microchip/xc32/v5.00/bin/bin/../../lib/gcc/pic32m/13.2.1/../../../../pic32m/lib/libpic32.a(default-on-bootstrap.o)

.data%z115      0x00000000        0x0
 .data          0x00000000        0x0 /opt/microchip/xc32/v5.00/bin/bin/../../lib/gcc/pic32m/13.2.1/../../../../pic32m/lib/libpic32.a(default-on-reset.o)

.data%z116      0x00000000        0x0
 .data          0x00000000        0x0 /opt/microchip/xc32/v5.00/bin/bin/../../lib/gcc/pic32m/13.2.1/../../../../pic32m/lib/libpic32.a(default-bootstrap-exception-handler.o)

.data%z117      0x00000000        0x0
 .data          0x00000000        0x0 /opt/microchip/xc32/v5.00/bin/bin/../../lib/gcc/pic32m/13.2.1/libgcc.a(floatunsisf.o)

.data%z118      0x00000000        0x0
 .data          0x00000000        0x0 /opt/microchip/xc32/v5.00/bin/bin/../../lib/gcc/pic32m/13.2.1/../../../../pic32m/lib/pic32_software_reset.o

.data%z119      0x00000000        0x0
 .data          0x00000000        0x0 /opt/microchip/xc32/v5.00/bin/bin/../../lib/gcc/pic32m/13.2.1/../../../../pic32m/lib/debug-exception-return.o

.data%z120      0x00000000        0x0
 .data          0x00000000        0x0 /tmp/ccZ3wfy0.o

.data%z121      0x00000000        0x0
 .data          0x00000000        0x0 /tmp/cc6UiQtu.o

.data%z122      0x00000000        0x0
 .data          0x00000000        0x0 /tmp/cckmVf8F.o

.data%z123      0x00000000        0x0
 .data          0x00000000        0x0 build/default/production/ProjectSource/CommonDefinitions.o

.data%z124      0x00000000        0x0
 .data          0x00000000        0x0 build/default/production/ProjectSource/Ports.o

.data%z125      0x00000000        0x0
 .data          0x00000000        0x0 build/default/production/ProjectSource/MainLogicFSM.o

.data%z126      0x00000000        0x0
 .data          0x00000000        0x0 build/default/production/ProjectSource/CommandRetrieveService.o

.data%z127      0x00000000        0x0
 .data          0x00000000        0x0 build/default/production/ProjectSource/PIC32_SPI_HAL.o

.data%z128      0x00000000        0x0
 .data          0x00000000        0x0 build/default/production/ProjectSource/DCMotorService.o

.data%z129      0x00000000        0x0
 .data          0x00000000        0x0 build/default/production/ProjectSource/PIC32_AD_Lib.o

.data%z130      0x00000000        0x0
 .data          0x00000000        0x0 build/default/production/ProjectSource/ADService.o

.data%z131      0x00000000        0x0
 .data          0x00000000        0x0 build/default/production/ProjectSource/main.o

.data%z132      0x00000000        0x0
 .data          0x00000000        0x0 build/default/production/ProjectSource/TestHarnessService0.o

.data%z133      0x00000000        0x0
 .data          0x00000000        0x0 build/default/production/ProjectSource/EventCheckers.o

.data%z134      0x00000000        0x0
 .data          0x00000000        0x0 build/default/production/FrameworkSource/dbprintf.o

.data%z135      0x00000000        0x0
 .data          0x00000000        0x0 build/default/production/FrameworkSource/circular_buffer_no_modulo_threadsafe.o

.data%z136      0x00000000        0x0
 .data          0x00000000        0x0 build/default/production/FrameworkSource/terminal.o

.data%z137      0x00000000        0x0
 .data          0x00000000        0x0 build/default/production/FrameworkSource/ES_Timers.o

.data%z138      0x00000000        0x0
 .data          0x00000000        0x0 build/default/production/FrameworkSource/ES_Queue.o

.data%z139      0x00000000        0x0
 .data          0x00000000        0x0 build/default/production/FrameworkSource/ES_PostList.o

.data%z140      0x00000000        0x0
 .data          0x00000000        0x0 build/default/production/FrameworkSource/ES_Port.o

.data%z141      0x00000000        0x0
 .data          0x00000000        0x0 build/default/production/FrameworkSource/ES_LookupTables.o

.data%z142      0x00000000        0x0
 .data          0x00000000        0x0 build/default/production/FrameworkSource/ES_Framework.o

.data%z143      0x00000000        0x0
 .data          0x00000000        0x0 build/default/production/FrameworkSource/ES_DeferRecall.o

.data%z144      0x00000000        0x0
 .data          0x00000000        0x0 build/default/production/FrameworkSource/ES_CheckEvents.o

.bss            0xa0000150      0x4d4
 .bss           0xa0000150      0x400 build/default/production/FrameworkSource/terminal.o
 .bss           0xa0000550       0x90 build/default/production/FrameworkSource/ES_Framework.o
 .bss           0xa00005e0       0x20 build/default/production/FrameworkSource/ES_Timers.o
 .bss           0xa0000600       0x20 build/default/production/FrameworkSource/circular_buffer_no_modulo_threadsafe.o
                0xa0000600                frameworkCircularBuffers
 .bss           0xa0000620        0x4 /opt/microchip/xc32/v5.00/bin/bin/../../lib/gcc/pic32m/13.2.1/../../../../pic32m/lib/libc-musl.a(fflush.o)

.bss.errno      0xa0000624        0x4
 .bss.errno     0xa0000624        0x4 /opt/microchip/xc32/v5.00/bin/bin/../../lib/gcc/pic32m/13.2.1/../../../../pic32m/lib/libpic32.a(errno.o)
                0xa0000624                errno

.bss%z145       0x00000000        0x0
 .bss           0x00000000        0x0 /opt/microchip/xc32/v5.00/bin/bin/../../lib/gcc/pic32m/13.2.1/../../../../pic32m/lib/libpic32.a(pic32_data_init_copy.o)

.bss%z146       0x00000000        0x0
 .bss           0x00000000        0x0 /opt/microchip/xc32/v5.00/bin/bin/../../lib/gcc/pic32m/13.2.1/../../../../pic32m/lib/libpic32.a(pic32_data_init_clear.o)

.bss%z147       0x00000000        0x0
 .bss           0x00000000        0x0 /opt/microchip/xc32/v5.00/bin/bin/../../lib/gcc/pic32m/13.2.1/libgcc.a(_umoddi3.o)

.bss%z148       0x00000000        0x0
 .bss           0x00000000        0x0 /opt/microchip/xc32/v5.00/bin/bin/../../lib/gcc/pic32m/13.2.1/libgcc.a(_udivdi3.o)

.bss%z149       0x00000000        0x0
 .bss           0x00000000        0x0 /opt/microchip/xc32/v5.00/bin/bin/../../lib/gcc/pic32m/13.2.1/libgcc.a(_ashldi3.o)

.bss%z150       0x00000000        0x0
 .bss           0x00000000        0x0 /opt/microchip/xc32/v5.00/bin/bin/../../lib/gcc/pic32m/13.2.1/libgcc.a(_lshrdi3.o)

.bss%z151       0x00000000        0x0
 .bss           0x00000000        0x0 /opt/microchip/xc32/v5.00/bin/bin/../../lib/gcc/pic32m/13.2.1/../../../../pic32m/lib/libe.a(_floatdidf.o)

.bss%z152       0x00000000        0x0
 .bss           0x00000000        0x0 /opt/microchip/xc32/v5.00/bin/bin/../../lib/gcc/pic32m/13.2.1/../../../../pic32m/lib/libm.a(fptodp.o)

.bss%z153       0x00000000        0x0
 .bss           0x00000000        0x0 /opt/microchip/xc32/v5.00/bin/bin/../../lib/gcc/pic32m/13.2.1/../../../../pic32m/lib/libm.a(dptofp.o)

.bss%z154       0x00000000        0x0
 .bss           0x00000000        0x0 /opt/microchip/xc32/v5.00/bin/bin/../../lib/gcc/pic32m/13.2.1/../../../../pic32m/lib/libc-size-musl.a(stpcpy.o)

.bss%z155       0x00000000        0x0
 .bss           0x00000000        0x0 /opt/microchip/xc32/v5.00/bin/bin/../../lib/gcc/pic32m/13.2.1/../../../../pic32m/lib/libc-size-musl.a(strcpy.o)

.bss%z156       0x00000000        0x0
 .bss           0x00000000        0x0 /opt/microchip/xc32/v5.00/bin/bin/../../lib/gcc/pic32m/13.2.1/../../../../pic32m/lib/libc-size-musl.a(strlen.o)

.bss%z157       0x00000000        0x0
 .bss           0x00000000        0x0 /opt/microchip/xc32/v5.00/bin/bin/../../lib/gcc/pic32m/13.2.1/../../../../pic32m/lib/libc-size-musl.a(memset.o)

.bss%z158       0x00000000        0x0
 .bss           0x00000000        0x0 /opt/microchip/xc32/v5.00/bin/bin/../../lib/gcc/pic32m/13.2.1/../../../../pic32m/lib/libc-size-musl.a(memcpy.o)

.bss%z159       0x00000000        0x0
 .bss           0x00000000        0x0 /opt/microchip/xc32/v5.00/bin/bin/../../lib/gcc/pic32m/13.2.1/../../../../pic32m/lib/libpic32.a(errno.o)

.bss%z160       0x00000000        0x0
 .bss           0x00000000        0x0 /opt/microchip/xc32/v5.00/bin/bin/../../lib/gcc/pic32m/13.2.1/../../../../pic32m/lib/libpic32.a(close.o)

.bss%z161       0x00000000        0x0
 .bss           0x00000000        0x0 /opt/microchip/xc32/v5.00/bin/bin/../../lib/gcc/pic32m/13.2.1/../../../../pic32m/lib/libpic32.a(lseek.o)

.bss%z162       0x00000000        0x0
 .bss           0x00000000        0x0 /opt/microchip/xc32/v5.00/bin/bin/../../lib/gcc/pic32m/13.2.1/../../../../pic32m/lib/libpic32.a(write.o)

.bss%z163       0x00000000        0x0
 .bss           0x00000000        0x0 /opt/microchip/xc32/v5.00/bin/bin/../../lib/gcc/pic32m/13.2.1/../../../../pic32m/lib/libpic32.a(_exit.o)

.bss%z164       0x00000000        0x0
 .bss           0x00000000        0x0 /opt/microchip/xc32/v5.00/bin/bin/../../lib/gcc/pic32m/13.2.1/../../../../pic32m/lib/libm-musl.a(scalbn.o)

.bss%z165       0x00000000        0x0
 .bss           0x00000000        0x0 /opt/microchip/xc32/v5.00/bin/bin/../../lib/gcc/pic32m/13.2.1/../../../../pic32m/lib/libm-musl.a(fma.o)

.bss%z166       0x00000000        0x0
 .bss           0x00000000        0x0 /opt/microchip/xc32/v5.00/bin/bin/../../lib/gcc/pic32m/13.2.1/../../../../pic32m/lib/libm.a(sitofp.o)

.bss%z167       0x00000000        0x0
 .bss           0x00000000        0x0 /opt/microchip/xc32/v5.00/bin/bin/../../lib/gcc/pic32m/13.2.1/../../../../pic32m/lib/libm.a(fp32subadd.o)

.bss%z168       0x00000000        0x0
 .bss           0x00000000        0x0 /opt/microchip/xc32/v5.00/bin/bin/../../lib/gcc/pic32m/13.2.1/../../../../pic32m/lib/libm.a(fp32mul.o)

.bss%z169       0x00000000        0x0
 .bss           0x00000000        0x0 /opt/microchip/xc32/v5.00/bin/bin/../../lib/gcc/pic32m/13.2.1/../../../../pic32m/lib/libm.a(fp32div.o)

.bss%z170       0x00000000        0x0
 .bss           0x00000000        0x0 /opt/microchip/xc32/v5.00/bin/bin/../../lib/gcc/pic32m/13.2.1/../../../../pic32m/lib/libm.a(dptoli.o)

.bss%z171       0x00000000        0x0
 .bss           0x00000000        0x0 /opt/microchip/xc32/v5.00/bin/bin/../../lib/gcc/pic32m/13.2.1/../../../../pic32m/lib/libm.a(dpcmplt.o)

.bss%z172       0x00000000        0x0
 .bss           0x00000000        0x0 /opt/microchip/xc32/v5.00/bin/bin/../../lib/gcc/pic32m/13.2.1/../../../../pic32m/lib/libm.a(dpcmp.o)

.bss%z173       0x00000000        0x0
 .bss           0x00000000        0x0 /opt/microchip/xc32/v5.00/bin/bin/../../lib/gcc/pic32m/13.2.1/../../../../pic32m/lib/libm.a(dp32subadd.o)

.bss%z174       0x00000000        0x0
 .bss           0x00000000        0x0 /opt/microchip/xc32/v5.00/bin/bin/../../lib/gcc/pic32m/13.2.1/../../../../pic32m/lib/libm.a(dp32mul.o)

.bss%z175       0x00000000        0x0
 .bss           0x00000000        0x0 /opt/microchip/xc32/v5.00/bin/bin/../../lib/gcc/pic32m/13.2.1/../../../../pic32m/lib/libm.a(dp32div.o)

.bss%z176       0x00000000        0x0
 .bss           0x00000000        0x0 /opt/microchip/xc32/v5.00/bin/bin/../../lib/gcc/pic32m/13.2.1/../../../../pic32m/lib/libm.a(floor32.o)

.bss%z177       0x00000000        0x0
 .bss           0x00000000        0x0 /opt/microchip/xc32/v5.00/bin/bin/../../lib/gcc/pic32m/13.2.1/../../../../pic32m/lib/libc-musl.a(__cvt_u.o)

.bss%z178       0x00000000        0x0
 .bss           0x00000000        0x0 /opt/microchip/xc32/v5.00/bin/bin/../../lib/gcc/pic32m/13.2.1/../../../../pic32m/lib/libc-musl.a(toupper.o)

.bss%z179       0x00000000        0x0
 .bss           0x00000000        0x0 /opt/microchip/xc32/v5.00/bin/bin/../../lib/gcc/pic32m/13.2.1/../../../../pic32m/lib/libc-musl.a(__io_file_needed.o)

.bss%z180       0x00000000        0x0
 .bss           0x00000000        0x0 /opt/microchip/xc32/v5.00/bin/bin/../../lib/gcc/pic32m/13.2.1/../../../../pic32m/lib/libc-musl.a(__init_stdio.o)

.bss%z181       0x00000000        0x0
 .bss           0x00000000        0x0 /opt/microchip/xc32/v5.00/bin/bin/../../lib/gcc/pic32m/13.2.1/../../../../pic32m/lib/libc-musl.a(__fmt_x.o)

.bss%z182       0x00000000        0x0
 .bss           0x00000000        0x0 /opt/microchip/xc32/v5.00/bin/bin/../../lib/gcc/pic32m/13.2.1/../../../../pic32m/lib/libc-musl.a(__fmt_u.o)

.bss%z183       0x00000000        0x0
 .bss           0x00000000        0x0 /opt/microchip/xc32/v5.00/bin/bin/../../lib/gcc/pic32m/13.2.1/../../../../pic32m/lib/libc-musl.a(__fmt_s.o)

.bss%z184       0x00000000        0x0
 .bss           0x00000000        0x0 /opt/microchip/xc32/v5.00/bin/bin/../../lib/gcc/pic32m/13.2.1/../../../../pic32m/lib/libc-musl.a(__fmt_o.o)

.bss%z185       0x00000000        0x0
 .bss           0x00000000        0x0 /opt/microchip/xc32/v5.00/bin/bin/../../lib/gcc/pic32m/13.2.1/../../../../pic32m/lib/libc-musl.a(__fmt_fp.o)

.bss%z186       0x00000000        0x0
 .bss           0x00000000        0x0 /opt/microchip/xc32/v5.00/bin/bin/../../lib/gcc/pic32m/13.2.1/../../../../pic32m/lib/libc-musl.a(__fmt_d.o)

.bss%z187       0x00000000        0x0
 .bss           0x00000000        0x0 /opt/microchip/xc32/v5.00/bin/bin/../../lib/gcc/pic32m/13.2.1/../../../../pic32m/lib/libc-musl.a(__fmt_a.o)

.bss%z188       0x00000000        0x0
 .bss           0x00000000        0x0 /opt/microchip/xc32/v5.00/bin/bin/../../lib/gcc/pic32m/13.2.1/../../../../pic32m/lib/libc-musl.a(tolower.o)

.bss%z189       0x00000000        0x0
 .bss           0x00000000        0x0 /opt/microchip/xc32/v5.00/bin/bin/../../lib/gcc/pic32m/13.2.1/../../../../pic32m/lib/libc-musl.a(atoi.o)

.bss%z190       0x00000000        0x0
 .bss           0x00000000        0x0 /opt/microchip/xc32/v5.00/bin/bin/../../lib/gcc/pic32m/13.2.1/../../../../pic32m/lib/libc-musl.a(stdout.o)

.bss%z191       0x00000000        0x0
 .bss           0x00000000        0x0 /opt/microchip/xc32/v5.00/bin/bin/../../lib/gcc/pic32m/13.2.1/../../../../pic32m/lib/libc-musl.a(putc.o)

.bss%z192       0x00000000        0x0
 .bss           0x00000000        0x0 /opt/microchip/xc32/v5.00/bin/bin/../../lib/gcc/pic32m/13.2.1/../../../../pic32m/lib/libc-musl.a(fwrite.o)

.bss%z193       0x00000000        0x0
 .bss           0x00000000        0x0 /opt/microchip/xc32/v5.00/bin/bin/../../lib/gcc/pic32m/13.2.1/../../../../pic32m/lib/libc-musl.a(__stdio_close.o)

.bss%z194       0x00000000        0x0
 .bss           0x00000000        0x0 /opt/microchip/xc32/v5.00/bin/bin/../../lib/gcc/pic32m/13.2.1/../../../../pic32m/lib/libc-musl.a(__printf_core.o)

.bss%z195       0x00000000        0x0
 .bss           0x00000000        0x0 /opt/microchip/xc32/v5.00/bin/bin/../../lib/gcc/pic32m/13.2.1/../../../../pic32m/lib/libc-musl.a(__pop_ptr.o)

.bss%z196       0x00000000        0x0
 .bss           0x00000000        0x0 /opt/microchip/xc32/v5.00/bin/bin/../../lib/gcc/pic32m/13.2.1/../../../../pic32m/lib/libc-musl.a(__pop_int.o)

.bss%z197       0x00000000        0x0
 .bss           0x00000000        0x0 /opt/microchip/xc32/v5.00/bin/bin/../../lib/gcc/pic32m/13.2.1/../../../../pic32m/lib/libc-musl.a(__pop_float.o)

.bss%z198       0x00000000        0x0
 .bss           0x00000000        0x0 /opt/microchip/xc32/v5.00/bin/bin/../../lib/gcc/pic32m/13.2.1/../../../../pic32m/lib/libc-musl.a(__out.o)

.bss%z199       0x00000000        0x0
 .bss           0x00000000        0x0 /opt/microchip/xc32/v5.00/bin/bin/../../lib/gcc/pic32m/13.2.1/../../../../pic32m/lib/libc-musl.a(__io_init_needed.o)

.bss%z200       0x00000000        0x0
 .bss           0x00000000        0x0 /opt/microchip/xc32/v5.00/bin/bin/../../lib/gcc/pic32m/13.2.1/../../../../pic32m/lib/libc-musl.a(__io_fmt_needed.o)

.bss%z201       0x00000000        0x0
 .bss           0x00000000        0x0 /opt/microchip/xc32/v5.00/bin/bin/../../lib/gcc/pic32m/13.2.1/../../../../pic32m/lib/libc-musl.a(fputs.o)

.bss%z202       0x00000000        0x0
 .bss           0x00000000        0x0 /opt/microchip/xc32/v5.00/bin/bin/../../lib/gcc/pic32m/13.2.1/../../../../pic32m/lib/libc-musl.a(_Exit.o)

.bss%z203       0x00000000        0x0
 .bss           0x00000000        0x0 /opt/microchip/xc32/v5.00/bin/bin/../../lib/gcc/pic32m/13.2.1/../../../../pic32m/lib/libc-musl.a(puts.o)

.bss%z204       0x00000000        0x0
 .bss           0x00000000        0x0 /opt/microchip/xc32/v5.00/bin/bin/../../lib/gcc/pic32m/13.2.1/../../../../pic32m/lib/libc-musl.a(putchar.o)

.bss%z205       0x00000000        0x0
 .bss           0x00000000        0x0 /opt/microchip/xc32/v5.00/bin/bin/../../lib/gcc/pic32m/13.2.1/../../../../pic32m/lib/libc-musl.a(stderr.o)

.bss%z206       0x00000000        0x0
 .bss           0x00000000        0x0 /opt/microchip/xc32/v5.00/bin/bin/../../lib/gcc/pic32m/13.2.1/../../../../pic32m/lib/libc-musl.a(vfprintf.o)

.bss%z207       0x00000000        0x0
 .bss           0x00000000        0x0 /opt/microchip/xc32/v5.00/bin/bin/../../lib/gcc/pic32m/13.2.1/../../../../pic32m/lib/libc-musl.a(fprintf.o)

.bss%z208       0x00000000        0x0
 .bss           0x00000000        0x0 /opt/microchip/xc32/v5.00/bin/bin/../../lib/gcc/pic32m/13.2.1/../../../../pic32m/lib/libc-musl.a(abort.o)

.bss%z209       0x00000000        0x0
 .bss           0x00000000        0x0 /opt/microchip/xc32/v5.00/bin/bin/../../lib/gcc/pic32m/13.2.1/../../../../pic32m/lib/libc-musl.a(assert.o)

.bss%z210       0x00000000        0x0
 .bss           0x00000000        0x0 /opt/microchip/xc32/v5.00/bin/bin/../../lib/gcc/pic32m/13.2.1/../../../../pic32m/lib/libpic32.a(defaultinterrupt.o)

.bss%z211       0x00000000        0x0
 .bss           0x00000000        0x0 /opt/microchip/xc32/v5.00/bin/bin/../../lib/gcc/pic32m/13.2.1/../../../../pic32m/lib/libpic32.a(default-general-exception-handler.o)

.bss%z212       0x00000000        0x0
 .bss           0x00000000        0x0 /opt/microchip/xc32/v5.00/bin/bin/../../lib/gcc/pic32m/13.2.1/../../../../pic32m/lib/libpic32.a(vector43.o)

.bss%z213       0x00000000        0x0
 .bss           0x00000000        0x0 /opt/microchip/xc32/v5.00/bin/bin/../../lib/gcc/pic32m/13.2.1/../../../../pic32m/lib/libpic32.a(vector42.o)

.bss%z214       0x00000000        0x0
 .bss           0x00000000        0x0 /opt/microchip/xc32/v5.00/bin/bin/../../lib/gcc/pic32m/13.2.1/../../../../pic32m/lib/libpic32.a(vector41.o)

.bss%z215       0x00000000        0x0
 .bss           0x00000000        0x0 /opt/microchip/xc32/v5.00/bin/bin/../../lib/gcc/pic32m/13.2.1/../../../../pic32m/lib/libpic32.a(vector40.o)

.bss%z216       0x00000000        0x0
 .bss           0x00000000        0x0 /opt/microchip/xc32/v5.00/bin/bin/../../lib/gcc/pic32m/13.2.1/../../../../pic32m/lib/libpic32.a(vector39.o)

.bss%z217       0x00000000        0x0
 .bss           0x00000000        0x0 /opt/microchip/xc32/v5.00/bin/bin/../../lib/gcc/pic32m/13.2.1/../../../../pic32m/lib/libpic32.a(vector38.o)

.bss%z218       0x00000000        0x0
 .bss           0x00000000        0x0 /opt/microchip/xc32/v5.00/bin/bin/../../lib/gcc/pic32m/13.2.1/../../../../pic32m/lib/libpic32.a(vector37.o)

.bss%z219       0x00000000        0x0
 .bss           0x00000000        0x0 /opt/microchip/xc32/v5.00/bin/bin/../../lib/gcc/pic32m/13.2.1/../../../../pic32m/lib/libpic32.a(vector36.o)

.bss%z220       0x00000000        0x0
 .bss           0x00000000        0x0 /opt/microchip/xc32/v5.00/bin/bin/../../lib/gcc/pic32m/13.2.1/../../../../pic32m/lib/libpic32.a(vector35.o)

.bss%z221       0x00000000        0x0
 .bss           0x00000000        0x0 /opt/microchip/xc32/v5.00/bin/bin/../../lib/gcc/pic32m/13.2.1/../../../../pic32m/lib/libpic32.a(vector34.o)

.bss%z222       0x00000000        0x0
 .bss           0x00000000        0x0 /opt/microchip/xc32/v5.00/bin/bin/../../lib/gcc/pic32m/13.2.1/../../../../pic32m/lib/libpic32.a(vector33.o)

.bss%z223       0x00000000        0x0
 .bss           0x00000000        0x0 /opt/microchip/xc32/v5.00/bin/bin/../../lib/gcc/pic32m/13.2.1/../../../../pic32m/lib/libpic32.a(vector32.o)

.bss%z224       0x00000000        0x0
 .bss           0x00000000        0x0 /opt/microchip/xc32/v5.00/bin/bin/../../lib/gcc/pic32m/13.2.1/../../../../pic32m/lib/libpic32.a(vector31.o)

.bss%z225       0x00000000        0x0
 .bss           0x00000000        0x0 /opt/microchip/xc32/v5.00/bin/bin/../../lib/gcc/pic32m/13.2.1/../../../../pic32m/lib/libpic32.a(vector30.o)

.bss%z226       0x00000000        0x0
 .bss           0x00000000        0x0 /opt/microchip/xc32/v5.00/bin/bin/../../lib/gcc/pic32m/13.2.1/../../../../pic32m/lib/libpic32.a(vector29.o)

.bss%z227       0x00000000        0x0
 .bss           0x00000000        0x0 /opt/microchip/xc32/v5.00/bin/bin/../../lib/gcc/pic32m/13.2.1/../../../../pic32m/lib/libpic32.a(vector28.o)

.bss%z228       0x00000000        0x0
 .bss           0x00000000        0x0 /opt/microchip/xc32/v5.00/bin/bin/../../lib/gcc/pic32m/13.2.1/../../../../pic32m/lib/libpic32.a(vector27.o)

.bss%z229       0x00000000        0x0
 .bss           0x00000000        0x0 /opt/microchip/xc32/v5.00/bin/bin/../../lib/gcc/pic32m/13.2.1/../../../../pic32m/lib/libpic32.a(vector26.o)

.bss%z230       0x00000000        0x0
 .bss           0x00000000        0x0 /opt/microchip/xc32/v5.00/bin/bin/../../lib/gcc/pic32m/13.2.1/../../../../pic32m/lib/libpic32.a(vector25.o)

.bss%z231       0x00000000        0x0
 .bss           0x00000000        0x0 /opt/microchip/xc32/v5.00/bin/bin/../../lib/gcc/pic32m/13.2.1/../../../../pic32m/lib/libpic32.a(vector24.o)

.bss%z232       0x00000000        0x0
 .bss           0x00000000        0x0 /opt/microchip/xc32/v5.00/bin/bin/../../lib/gcc/pic32m/13.2.1/../../../../pic32m/lib/libpic32.a(vector23.o)

.bss%z233       0x00000000        0x0
 .bss           0x00000000        0x0 /opt/microchip/xc32/v5.00/bin/bin/../../lib/gcc/pic32m/13.2.1/../../../../pic32m/lib/libpic32.a(vector22.o)

.bss%z234       0x00000000        0x0
 .bss           0x00000000        0x0 /opt/microchip/xc32/v5.00/bin/bin/../../lib/gcc/pic32m/13.2.1/../../../../pic32m/lib/libpic32.a(vector21.o)

.bss%z235       0x00000000        0x0
 .bss           0x00000000        0x0 /opt/microchip/xc32/v5.00/bin/bin/../../lib/gcc/pic32m/13.2.1/../../../../pic32m/lib/libpic32.a(vector20.o)

.bss%z236       0x00000000        0x0
 .bss           0x00000000        0x0 /opt/microchip/xc32/v5.00/bin/bin/../../lib/gcc/pic32m/13.2.1/../../../../pic32m/lib/libpic32.a(vector19.o)

.bss%z237       0x00000000        0x0
 .bss           0x00000000        0x0 /opt/microchip/xc32/v5.00/bin/bin/../../lib/gcc/pic32m/13.2.1/../../../../pic32m/lib/libpic32.a(vector18.o)

.bss%z238       0x00000000        0x0
 .bss           0x00000000        0x0 /opt/microchip/xc32/v5.00/bin/bin/../../lib/gcc/pic32m/13.2.1/../../../../pic32m/lib/libpic32.a(vector17.o)

.bss%z239       0x00000000        0x0
 .bss           0x00000000        0x0 /opt/microchip/xc32/v5.00/bin/bin/../../lib/gcc/pic32m/13.2.1/../../../../pic32m/lib/libpic32.a(vector16.o)

.bss%z240       0x00000000        0x0
 .bss           0x00000000        0x0 /opt/microchip/xc32/v5.00/bin/bin/../../lib/gcc/pic32m/13.2.1/../../../../pic32m/lib/libpic32.a(vector15.o)

.bss%z241       0x00000000        0x0
 .bss           0x00000000        0x0 /opt/microchip/xc32/v5.00/bin/bin/../../lib/gcc/pic32m/13.2.1/../../../../pic32m/lib/libpic32.a(vector14.o)

.bss%z242       0x00000000        0x0
 .bss           0x00000000        0x0 /opt/microchip/xc32/v5.00/bin/bin/../../lib/gcc/pic32m/13.2.1/../../../../pic32m/lib/libpic32.a(vector13.o)

.bss%z243       0x00000000        0x0
 .bss           0x00000000        0x0 /opt/microchip/xc32/v5.00/bin/bin/../../lib/gcc/pic32m/13.2.1/../../../../pic32m/lib/libpic32.a(vector12.o)

.bss%z244       0x00000000        0x0
 .bss           0x00000000        0x0 /opt/microchip/xc32/v5.00/bin/bin/../../lib/gcc/pic32m/13.2.1/../../../../pic32m/lib/libpic32.a(vector11.o)

.bss%z245       0x00000000        0x0
 .bss           0x00000000        0x0 /opt/microchip/xc32/v5.00/bin/bin/../../lib/gcc/pic32m/13.2.1/../../../../pic32m/lib/libpic32.a(vector10.o)

.bss%z246       0x00000000        0x0
 .bss           0x00000000        0x0 /opt/microchip/xc32/v5.00/bin/bin/../../lib/gcc/pic32m/13.2.1/../../../../pic32m/lib/libpic32.a(vector9.o)

.bss%z247       0x00000000        0x0
 .bss           0x00000000        0x0 /opt/microchip/xc32/v5.00/bin/bin/../../lib/gcc/pic32m/13.2.1/../../../../pic32m/lib/libpic32.a(vector8.o)

.bss%z248       0x00000000        0x0
 .bss           0x00000000        0x0 /opt/microchip/xc32/v5.00/bin/bin/../../lib/gcc/pic32m/13.2.1/../../../../pic32m/lib/libpic32.a(vector7.o)

.bss%z249       0x00000000        0x0
 .bss           0x00000000        0x0 /opt/microchip/xc32/v5.00/bin/bin/../../lib/gcc/pic32m/13.2.1/../../../../pic32m/lib/libpic32.a(vector6.o)

.bss%z250       0x00000000        0x0
 .bss           0x00000000        0x0 /opt/microchip/xc32/v5.00/bin/bin/../../lib/gcc/pic32m/13.2.1/../../../../pic32m/lib/libpic32.a(vector5.o)

.bss%z251       0x00000000        0x0
 .bss           0x00000000        0x0 /opt/microchip/xc32/v5.00/bin/bin/../../lib/gcc/pic32m/13.2.1/../../../../pic32m/lib/libpic32.a(vector4.o)

.bss%z252       0x00000000        0x0
 .bss           0x00000000        0x0 /opt/microchip/xc32/v5.00/bin/bin/../../lib/gcc/pic32m/13.2.1/../../../../pic32m/lib/libpic32.a(vector3.o)

.bss%z253       0x00000000        0x0
 .bss           0x00000000        0x0 /opt/microchip/xc32/v5.00/bin/bin/../../lib/gcc/pic32m/13.2.1/../../../../pic32m/lib/libpic32.a(vector2.o)

.bss%z254       0x00000000        0x0
 .bss           0x00000000        0x0 /opt/microchip/xc32/v5.00/bin/bin/../../lib/gcc/pic32m/13.2.1/../../../../pic32m/lib/libpic32.a(vector1.o)

.bss%z255       0x00000000        0x0
 .bss           0x00000000        0x0 /opt/microchip/xc32/v5.00/bin/bin/../../lib/gcc/pic32m/13.2.1/../../../../pic32m/lib/libpic32.a(general-exception.o)

.bss%z256       0x00000000        0x0
 .bss           0x00000000        0x0 /opt/microchip/xc32/v5.00/bin/bin/../../lib/gcc/pic32m/13.2.1/../../../../pic32m/lib/libpic32.a(pic32_data_init_core.o)

.bss%z257       0x00000000        0x0
 .bss           0x00000000        0x0 /opt/microchip/xc32/v5.00/bin/bin/../../lib/gcc/pic32m/13.2.1/../../../../pic32m/lib/libpic32.a(xc32_uart.o)

.bss%z258       0x00000000        0x0
 .bss           0x00000000        0x0 /opt/microchip/xc32/v5.00/bin/bin/../../lib/gcc/pic32m/13.2.1/../../../../pic32m/lib/libpic32.a(default-nmi-handler.o)

.bss%z259       0x00000000        0x0
 .bss           0x00000000        0x0 /opt/microchip/xc32/v5.00/bin/bin/../../lib/gcc/pic32m/13.2.1/../../../../pic32m/lib/libpic32.a(default-on-bootstrap.o)

.bss%z260       0x00000000        0x0
 .bss           0x00000000        0x0 /opt/microchip/xc32/v5.00/bin/bin/../../lib/gcc/pic32m/13.2.1/../../../../pic32m/lib/libpic32.a(default-on-reset.o)

.bss%z261       0x00000000        0x0
 .bss           0x00000000        0x0 /opt/microchip/xc32/v5.00/bin/bin/../../lib/gcc/pic32m/13.2.1/../../../../pic32m/lib/libpic32.a(default-bootstrap-exception-handler.o)

.bss%z262       0x00000000        0x0
 .bss           0x00000000        0x0 /opt/microchip/xc32/v5.00/bin/bin/../../lib/gcc/pic32m/13.2.1/libgcc.a(floatunsisf.o)

.bss%z263       0x00000000        0x0
 .bss           0x00000000        0x0 /opt/microchip/xc32/v5.00/bin/bin/../../lib/gcc/pic32m/13.2.1/../../../../pic32m/lib/pic32_software_reset.o

.bss%z264       0x00000000        0x0
 .bss           0x00000000        0x0 /opt/microchip/xc32/v5.00/bin/bin/../../lib/gcc/pic32m/13.2.1/../../../../pic32m/lib/debug-exception-return.o

.bss%z265       0x00000000        0x0
 .bss           0x00000000        0x0 /tmp/ccZ3wfy0.o

.bss%z266       0x00000000        0x0
 .bss           0x00000000        0x0 /tmp/cc6UiQtu.o

.bss%z267       0x00000000        0x0
 .bss           0x00000000        0x0 /tmp/cckmVf8F.o

.bss%z268       0x00000000        0x0
 .bss           0x00000000        0x0 build/default/production/ProjectSource/CommonDefinitions.o

.bss%z269       0x00000000        0x0
 .bss           0x00000000        0x0 build/default/production/ProjectSource/Ports.o

.bss%z270       0x00000000        0x0
 .bss           0x00000000        0x0 build/default/production/ProjectSource/MainLogicFSM.o

.bss%z271       0x00000000        0x0
 .bss           0x00000000        0x0 build/default/production/ProjectSource/CommandRetrieveService.o

.bss%z272       0x00000000        0x0
 .bss           0x00000000        0x0 build/default/production/ProjectSource/PIC32_SPI_HAL.o

.bss%z273       0x00000000        0x0
 .bss           0x00000000        0x0 build/default/production/ProjectSource/DCMotorService.o

.bss%z274       0x00000000        0x0
 .bss           0x00000000        0x0 build/default/production/ProjectSource/PIC32_AD_Lib.o

.bss%z275       0x00000000        0x0
 .bss           0x00000000        0x0 build/default/production/ProjectSource/ADService.o

.bss%z276       0x00000000        0x0
 .bss           0x00000000        0x0 build/default/production/ProjectSource/main.o

.bss%z277       0x00000000        0x0
 .bss           0x00000000        0x0 build/default/production/ProjectSource/TestHarnessService0.o

.bss%z278       0x00000000        0x0
 .bss           0x00000000        0x0 build/default/production/ProjectSource/EventCheckers.o

.bss%z279       0x00000000        0x0
 .bss           0x00000000        0x0 build/default/production/FrameworkSource/dbprintf.o

.bss%z280       0x00000000        0x0
 .bss           0x00000000        0x0 build/default/production/FrameworkSource/ES_Queue.o

.bss%z281       0x00000000        0x0
 .bss           0x00000000        0x0 build/default/production/FrameworkSource/ES_PostList.o

.bss%z282       0x00000000        0x0
 .bss           0x00000000        0x0 build/default/production/FrameworkSource/ES_Port.o

.bss%z283       0x00000000        0x0
 .bss           0x00000000        0x0 build/default/production/FrameworkSource/ES_LookupTables.o

.bss%z284       0x00000000        0x0
 .bss           0x00000000        0x0 build/default/production/FrameworkSource/ES_DeferRecall.o

.bss%z285       0x00000000        0x0
 .bss           0x00000000        0x0 build/default/production/FrameworkSource/ES_CheckEvents.o

._debug_exception
                0xbfc00480       0x2c
 ._debug_exception
                0xbfc00480       0x2c /opt/microchip/xc32/v5.00/bin/bin/../../lib/gcc/pic32m/13.2.1/../../../../pic32m/lib/debug-exception-return.o
                0xbfc00480                __DbgExecReturn

.text           0x9d000000     0x1d10
 .text          0x9d000000     0x1260 build/default/production/ProjectSource/PIC32_SPI_HAL.o
                0x9d000000                SPISetup_BasicConfig
                0x9d0000ac                SPISetup_SetFollower
                0x9d000114                SPISetup_SetLeader
                0x9d0001b8                SPISetup_SetBitTime
                0x9d000280                SPISetup_MapSSInput
                0x9d0004ac                SPISetup_MapSSOutput
                0x9d0006dc                SPISetup_MapSDInput
                0x9d000844                SPISetup_MapSDOutput
                0x9d0009d0                SPISetup_SetClockIdleState
                0x9d000a50                SPISetup_SetActiveEdge
                0x9d000ad0                SPISetup_SetXferWidth
                0x9d000be4                SPISetEnhancedBuffer
                0x9d000c68                SPISetup_DisableSPI
                0x9d000cbc                SPISetup_EnableSPI
                0x9d000d14                SPIOperate_SPI1_Send8
                0x9d000d4c                SPIOperate_SPI1_Send16
                0x9d000d84                SPIOperate_SPI1_Send32
                0x9d000dac                SPIOperate_SPI1_Send8Wait
                0x9d000de8                SPIOperate_SPI1_Send16Wait
                0x9d000e50                SPIOperate_SPI1_Send32Wait
                0x9d000e78                SPIOperate_ReadData
                0x9d000ec4                SPIOperate_HasSS1_Risen
                0x9d000f24                SPIOperate_HasSS2_Risen
 .text          0x9d001260      0xab0 build/default/production/ProjectSource/MainLogicFSM.o
                0x9d001260                InitMainLogicFSM
                0x9d00130c                PostMainLogicFSM
                0x9d001354                RunMainLogicFSM
                0x9d0019f4                QueryMainLogicFSM

.text.__fmt_fp  0x9d001d10      0x87c
 .text.__fmt_fp
                0x9d001d10      0x87c /opt/microchip/xc32/v5.00/bin/bin/../../lib/gcc/pic32m/13.2.1/../../../../pic32m/lib/libc-musl.a(__fmt_fp.o)
                0x9d001d10                __fmt_fp
                0x9d001d10                __fmt_f_needed

.text.__fmt_a   0x9d00258c      0x82c
 .text.__fmt_a  0x9d00258c      0x82c /opt/microchip/xc32/v5.00/bin/bin/../../lib/gcc/pic32m/13.2.1/../../../../pic32m/lib/libc-musl.a(__fmt_a.o)
                0x9d00258c                __fmt_a
                0x9d00258c                __fmt_a_needed

.text.fma       0x9d002db8      0x740
 .text.fma      0x9d002db8      0x740 /opt/microchip/xc32/v5.00/bin/bin/../../lib/gcc/pic32m/13.2.1/../../../../pic32m/lib/libm-musl.a(fma.o)
                0x9d002db8                fma

.text           0x9d0034f8      0x5f4
 .text          0x9d0034f8      0x5f4 build/default/production/ProjectSource/DCMotorService.o
                0x9d0034f8                InitDCMotorService
                0x9d003588                PostDCMotorService
                0x9d0035d0                RunDCMotorService
                0x9d003784                MotorCommandWrapper

.text.__printf_core
                0x9d003aec      0x5e8
 .text.__printf_core
                0x9d003aec      0x5e8 /opt/microchip/xc32/v5.00/bin/bin/../../lib/gcc/pic32m/13.2.1/../../../../pic32m/lib/libc-musl.a(__printf_core.o)
                0x9d003aec                __printf_core

.text.dp32mul   0x9d0040d4      0x504
 .text.dp32mul  0x9d0040d4      0x504 /opt/microchip/xc32/v5.00/bin/bin/../../lib/gcc/pic32m/13.2.1/../../../../pic32m/lib/libm.a(dp32div.o)
                0x9d0040d4                dpdiv
                0x9d0040d4                __divdf3

.text           0x9d0045d8     0x12ec
 .text          0x9d0045d8      0x4e4 build/default/production/FrameworkSource/dbprintf.o
                0x9d0045d8                DB_printf
 .text          0x9d004abc      0x4bc build/default/production/FrameworkSource/ES_Framework.o
                0x9d004abc                ES_Initialize
                0x9d004bec                ES_Run
                0x9d004d28                ES_PostAll
                0x9d004e10                ES_PostToService
                0x9d004ec4                ES_PostToServiceLIFO
 .text          0x9d004f78      0x4b8 build/default/production/FrameworkSource/circular_buffer_no_modulo_threadsafe.o
                0x9d005080                circular_buf_init
                0x9d005100                circular_buf_reset
                0x9d005138                circular_buf_size
                0x9d0051f0                circular_buf_capacity
                0x9d00521c                circular_buf_put
                0x9d00527c                circular_buf_put2
                0x9d005304                circular_buf_get
                0x9d00538c                circular_buf_empty
                0x9d0053cc                circular_buf_full
 .text          0x9d005430      0x494 build/default/production/ProjectSource/CommandRetrieveService.o
                0x9d005430                InitCommandRetrieveService
                0x9d005620                PostCommandRetrieveService
                0x9d005668                RunCommandRetrieveService
                0x9d0057e0                QueryCommandGenerator

.text.dp32subadd
                0x9d0058c4      0x488
 .text.dp32subadd
                0x9d0058c4      0x488 /opt/microchip/xc32/v5.00/bin/bin/../../lib/gcc/pic32m/13.2.1/../../../../pic32m/lib/libm.a(dp32subadd.o)
                0x9d0058c4                dpsub
                0x9d0058c4                __subdf3
                0x9d0058cc                __adddf3
                0x9d0058cc                dpadd

.text           0x9d005d4c     0x1660
 .text          0x9d005d4c      0x44c build/default/production/FrameworkSource/ES_Timers.o
                0x9d005d4c                ES_Timer_Init
                0x9d005d88                ES_Timer_SetTimer
                0x9d005e24                ES_Timer_StartTimer
                0x9d005eb4                ES_Timer_StopTimer
                0x9d005f38                ES_Timer_InitTimer
                0x9d005ffc                ES_Timer_GetTime
                0x9d00602c                ES_Timer_Tick_Resp
 .text          0x9d006198      0x3dc /opt/microchip/xc32/v5.00/bin/bin/../../lib/gcc/pic32m/13.2.1/libgcc.a(_umoddi3.o)
                0x9d006198                __umoddi3
 .text          0x9d006574      0x3a4 /opt/microchip/xc32/v5.00/bin/bin/../../lib/gcc/pic32m/13.2.1/libgcc.a(_udivdi3.o)
                0x9d006574                __udivdi3
 .text          0x9d006918      0x39c build/default/production/FrameworkSource/ES_Queue.o
                0x9d006918                ES_InitQueue
                0x9d006978                ES_EnQueueFIFO
                0x9d006a54                ES_EnQueueLIFO
                0x9d006b54                ES_DeQueue
                0x9d006c78                ES_IsQueueEmpty
 .text          0x9d006cb4      0x37c build/default/production/FrameworkSource/ES_Port.o
                0x9d006cb4                _HW_PIC32Init
                0x9d006ce8                _HW_Timer_Init
                0x9d006db0                _HW_SysTickIntHandler
                0x9d006f74                _HW_GetTickCount
                0x9d006f9c                _HW_Process_Pending_Ints
                0x9d006ffc                _HW_ConsoleInit
 .text          0x9d007030      0x37c build/default/production/FrameworkSource/terminal.o
                0x9d007030                Terminal_HWInit
                0x9d007158                Terminal_ReadByte
                0x9d0071c8                Terminal_WriteByte
                0x9d007214                Terminal_IsRxData
                0x9d007278                _mon_putc
                0x9d0072c4                Terminal_MoveBuffer2UART
                0x9d007358                _fassert

.text.dp32mul   0x9d0073ac      0x364
 .text.dp32mul  0x9d0073ac      0x364 /opt/microchip/xc32/v5.00/bin/bin/../../lib/gcc/pic32m/13.2.1/../../../../pic32m/lib/libm.a(dp32mul.o)
                0x9d0073ac                dpmul
                0x9d0073ac                __muldf3

.text.fpsubadd  0x9d007710      0x2b0
 .text.fpsubadd
                0x9d007710      0x2b0 /opt/microchip/xc32/v5.00/bin/bin/../../lib/gcc/pic32m/13.2.1/../../../../pic32m/lib/libm.a(fp32subadd.o)
                0x9d007710                __subsf3
                0x9d007710                fpsub
                0x9d007718                fpadd
                0x9d007718                __addsf3

.rodata         0x9d0079c0      0x2a4
 .rodata        0x9d0079c0      0x2a4 build/default/production/ProjectSource/PIC32_SPI_HAL.o

.text           0x9d007c64      0x298
 .text          0x9d007c64      0x298 build/default/production/ProjectSource/PIC32_AD_Lib.o
                0x9d007c64                ADC_ConfigAutoScan
                0x9d007d9c                ADC_MultiRead

.rodata         0x9d007efc      0x26f
 .rodata        0x9d007efc      0x26f build/default/production/ProjectSource/MainLogicFSM.o

.text           0x9d00816c      0x264
 .text          0x9d00816c      0x264 build/default/production/ProjectSource/TestHarnessService0.o
                0x9d00816c                InitTestHarnessService0
                0x9d00824c                PostTestHarnessService0
                0x9d008294                RunTestHarnessService0

.text.fp32div   0x9d0083d0      0x258
 .text.fp32div  0x9d0083d0      0x258 /opt/microchip/xc32/v5.00/bin/bin/../../lib/gcc/pic32m/13.2.1/../../../../pic32m/lib/libm.a(fp32div.o)
                0x9d0083d0                __divsf3
                0x9d0083d0                fpdiv

.text           0x9d008628      0x24c
 .text          0x9d008628      0x24c build/default/production/ProjectSource/ADService.o
                0x9d008628                InitADService
                0x9d0086f0                PostADService
                0x9d008738                RunADService
                0x9d008850                GetDesiredSpeed

.text.__fmt_x   0x9d008874      0x204
 .text.__fmt_x  0x9d008874      0x204 /opt/microchip/xc32/v5.00/bin/bin/../../lib/gcc/pic32m/13.2.1/../../../../pic32m/lib/libc-musl.a(__fmt_x.o)
                0x9d008874                __fmt_x
                0x9d008874                __fmt_x_needed

.text.__floatdidf
                0x9d008a78      0x1f4
 .text.__floatdidf
                0x9d008a78      0x1f4 /opt/microchip/xc32/v5.00/bin/bin/../../lib/gcc/pic32m/13.2.1/../../../../pic32m/lib/libe.a(_floatdidf.o)
                0x9d008a78                __floatdidf

.dinit          0x9d008c6c      0x1e0
 .dinit         0x9d008c6c      0x1e0 data_init

.text           0x9d008e4c      0x1dc
 .text          0x9d008e4c      0x1dc build/default/production/ProjectSource/EventCheckers.o
                0x9d008e4c                Check4Keystroke
                0x9d008ec0                Check4TapeDetected
                0x9d008f50                Check4CommandAvailable
                0x9d008f74                Check4BeaconDetected

.text.fp32mul   0x9d009028      0x1dc
 .text.fp32mul  0x9d009028      0x1dc /opt/microchip/xc32/v5.00/bin/bin/../../lib/gcc/pic32m/13.2.1/../../../../pic32m/lib/libm.a(fp32mul.o)
                0x9d009028                __mulsf3
                0x9d009028                fpmul

.text           0x9d009204      0x33c
 .text          0x9d009204      0x1a0 build/default/production/ProjectSource/Ports.o
                0x9d009204                InitBeaconInputPin
                0x9d00924c                ReadBeaconInputPin
                0x9d009298                InitTapeSensorPin
                0x9d0092e0                ReadTapeSensorPin
                0x9d00932c                InitCommandSPIPins
                0x9d009350                InitDebugOutputPin
 .text          0x9d0093a4      0x19c build/default/production/ProjectSource/main.o
                0x9d0093a4                main

.text.__pop_int
                0x9d009540      0x188
 .text.__pop_int
                0x9d009540      0x188 /opt/microchip/xc32/v5.00/bin/bin/../../lib/gcc/pic32m/13.2.1/../../../../pic32m/lib/libc-musl.a(__pop_int.o)
                0x9d009540                __pop_int
                0x9d009540                __pop_int_needed

.text.dpcmp     0x9d0096c8      0x160
 .text.dpcmp    0x9d0096c8      0x160 /opt/microchip/xc32/v5.00/bin/bin/../../lib/gcc/pic32m/13.2.1/../../../../pic32m/lib/libm.a(dpcmp.o)
                0x9d0096c8                __eqdf2
                0x9d0096c8                __gtdf2
                0x9d0096c8                dpcmp
                0x9d0096c8                __nedf2
                0x9d0096c8                __gedf2

.text.dfcmplt   0x9d009828      0x160
 .text.dfcmplt  0x9d009828      0x160 /opt/microchip/xc32/v5.00/bin/bin/../../lib/gcc/pic32m/13.2.1/../../../../pic32m/lib/libm.a(dpcmplt.o)
                0x9d009828                dpcmplt
                0x9d009828                __ltdf2
                0x9d009828                __ledf2

.text.__fmt_d   0x9d009988      0x158
 .text.__fmt_d  0x9d009988      0x158 /opt/microchip/xc32/v5.00/bin/bin/../../lib/gcc/pic32m/13.2.1/../../../../pic32m/lib/libc-musl.a(__fmt_d.o)
                0x9d009988                __fmt_d_needed
                0x9d009988                __fmt_d

.rodata         0x9d009ae0      0x14d
 .rodata        0x9d009ae0      0x14d build/default/production/ProjectSource/TestHarnessService0.o

.text.__cvt_u   0x9d009c30      0x138
 .text.__cvt_u  0x9d009c30      0x138 /opt/microchip/xc32/v5.00/bin/bin/../../lib/gcc/pic32m/13.2.1/../../../../pic32m/lib/libc-musl.a(__cvt_u.o)
                0x9d009c30                __cvt_u

.text           0x9d009d68      0x12c
 .text          0x9d009d68      0x12c build/default/production/ProjectSource/CommonDefinitions.o
                0x9d009d68                PeriodToRPM
                0x9d009e24                ADToRPM

.text.__pop_ptr
                0x9d009e94      0x12c
 .text.__pop_ptr
                0x9d009e94      0x12c /opt/microchip/xc32/v5.00/bin/bin/../../lib/gcc/pic32m/13.2.1/../../../../pic32m/lib/libc-musl.a(__pop_ptr.o)
                0x9d009e94                __pop_ptr_needed
                0x9d009e94                __pop_ptr

.text           0x9d009fc0      0x118
 .text          0x9d009fc0      0x118 /opt/microchip/xc32/v5.00/bin/bin/../../lib/gcc/pic32m/13.2.1/../../../../pic32m/lib/libm.a(floor32.o)
                0x9d009fc0                dpfloor
                0x9d009fc0                floor
                0x9d009fc0                floorl

.text.dptofp    0x9d00a0d8      0x110
 .text.dptofp   0x9d00a0d8      0x110 /opt/microchip/xc32/v5.00/bin/bin/../../lib/gcc/pic32m/13.2.1/../../../../pic32m/lib/libm.a(dptofp.o)
                0x9d00a0d8                dptofp
                0x9d00a0d8                __truncdfsf2

.text.__pad     0x9d00a1e8       0xfc
 .text.__pad    0x9d00a1e8       0xfc /opt/microchip/xc32/v5.00/bin/bin/../../lib/gcc/pic32m/13.2.1/../../../../pic32m/lib/libc-musl.a(__printf_core.o)
                0x9d00a1e8                __pad

.text.__fmt_o   0x9d00a2e4       0xf4
 .text.__fmt_o  0x9d00a2e4       0xf4 /opt/microchip/xc32/v5.00/bin/bin/../../lib/gcc/pic32m/13.2.1/../../../../pic32m/lib/libc-musl.a(__fmt_o.o)
                0x9d00a2e4                __fmt_o_needed
                0x9d00a2e4                __fmt_o

.text.scalbn    0x9d00a3d8       0xf0
 .text.scalbn   0x9d00a3d8       0xf0 /opt/microchip/xc32/v5.00/bin/bin/../../lib/gcc/pic32m/13.2.1/../../../../pic32m/lib/libm-musl.a(scalbn.o)
                0x9d00a3d8                scalbn

.text.general_exception
                0x9d00a4c8       0xdc
 .text.general_exception
                0x9d00a4c8       0xdc /opt/microchip/xc32/v5.00/bin/bin/../../lib/gcc/pic32m/13.2.1/../../../../pic32m/lib/libpic32.a(general-exception.o)
                0x9d00a4c8                _general_exception_context

.text.__stdio_close_rw
                0x9d00a5a4       0xd0
 .text.__stdio_close_rw
                0x9d00a5a4       0xd0 /opt/microchip/xc32/v5.00/bin/bin/../../lib/gcc/pic32m/13.2.1/../../../../pic32m/lib/libc-musl.a(__stdio_close.o)
                0x9d00a5a4                __stdio_close_rw

.text.write     0x9d00a674       0xd0
 .text.write    0x9d00a674       0xd0 /opt/microchip/xc32/v5.00/bin/bin/../../lib/gcc/pic32m/13.2.1/../../../../pic32m/lib/libpic32.a(write.o)
                0x9d00a674                write

.text           0x9d00a744       0xc4
 .text          0x9d00a744       0xc4 build/default/production/FrameworkSource/ES_LookupTables.o
                0x9d00a744                ES_GetMSBitSet

.text.__fmt_u   0x9d00a808       0xbc
 .text.__fmt_u  0x9d00a808       0xbc /opt/microchip/xc32/v5.00/bin/bin/../../lib/gcc/pic32m/13.2.1/../../../../pic32m/lib/libc-musl.a(__fmt_u.o)
                0x9d00a808                __fmt_u
                0x9d00a808                __fmt_u_needed

.text.fptodp    0x9d00a8c4       0xb0
 .text.fptodp   0x9d00a8c4       0xb0 /opt/microchip/xc32/v5.00/bin/bin/../../lib/gcc/pic32m/13.2.1/../../../../pic32m/lib/libm.a(fptodp.o)
                0x9d00a8c4                __extendsfdf2
                0x9d00a8c4                fptodp

.text.__stdio_close
                0x9d00a974       0xa8
 .text.__stdio_close
                0x9d00a974       0xa8 /opt/microchip/xc32/v5.00/bin/bin/../../lib/gcc/pic32m/13.2.1/../../../../pic32m/lib/libc-musl.a(__stdio_close.o)
                0x9d00a974                __stdio_close

.text           0x9d00aa1c       0xa4
 .text          0x9d00aa1c       0xa4 build/default/production/FrameworkSource/ES_CheckEvents.o
                0x9d00aa1c                ES_CheckUserEvents

.text.__fmt_s   0x9d00aac0       0xa4
 .text.__fmt_s  0x9d00aac0       0xa4 /opt/microchip/xc32/v5.00/bin/bin/../../lib/gcc/pic32m/13.2.1/../../../../pic32m/lib/libc-musl.a(__fmt_s.o)
                0x9d00aac0                __fmt_s_needed
                0x9d00aac0                __fmt_s
                0x9d00aac0                __fmt_0_needed

.text.normalize
                0x9d00ab64       0xa0
 .text.normalize
                0x9d00ab64       0xa0 /opt/microchip/xc32/v5.00/bin/bin/../../lib/gcc/pic32m/13.2.1/../../../../pic32m/lib/libm-musl.a(fma.o)

.text.dptoli    0x9d00ac04       0x9c
 .text.dptoli   0x9d00ac04       0x9c /opt/microchip/xc32/v5.00/bin/bin/../../lib/gcc/pic32m/13.2.1/../../../../pic32m/lib/libm.a(dptoli.o)
                0x9d00ac04                __fixdfsi
                0x9d00ac04                dptoli

.text           0x9d00aca0       0x88
 .text          0x9d00aca0       0x88 build/default/production/FrameworkSource/ES_DeferRecall.o
                0x9d00aca0                ES_RecallEvents

.text.__out     0x9d00ad28       0x88
 .text.__out    0x9d00ad28       0x88 /opt/microchip/xc32/v5.00/bin/bin/../../lib/gcc/pic32m/13.2.1/../../../../pic32m/lib/libc-musl.a(__out.o)
                0x9d00ad28                __out_needed
                0x9d00ad28                __out

.rodata         0x9d00adb0       0x85
 .rodata        0x9d00adb0       0x85 build/default/production/ProjectSource/main.o

.rodata         0x9d00ae38       0x85
 .rodata        0x9d00ae38       0x85 build/default/production/ProjectSource/DCMotorService.o

.text           0x9d00aec0       0x7c
 .text          0x9d00aec0       0x7c /opt/microchip/xc32/v5.00/bin/bin/../../lib/gcc/pic32m/13.2.1/../../../../pic32m/lib/libpic32.a(pic32_data_init_core.o)
                0x9d00aec0                __dinit_copy_emb
                0x9d00aec0                __dinit_decompress
                0x9d00aec0                __dinit_copy_val_data
                0x9d00aec8                __pic32_data_init

.text.atoi      0x9d00af3c       0x7c
 .text.atoi     0x9d00af3c       0x7c /opt/microchip/xc32/v5.00/bin/bin/../../lib/gcc/pic32m/13.2.1/../../../../pic32m/lib/libc-musl.a(atoi.o)
                0x9d00af3c                atoi

.text.a_clz_64  0x9d00afb8       0x6c
 .text.a_clz_64
                0x9d00afb8       0x6c /opt/microchip/xc32/v5.00/bin/bin/../../lib/gcc/pic32m/13.2.1/../../../../pic32m/lib/libm-musl.a(fma.o)

.rodata.cst8    0x9d00b028       0x68
 .rodata.cst8   0x9d00b028       0x68 /opt/microchip/xc32/v5.00/bin/bin/../../lib/gcc/pic32m/13.2.1/../../../../pic32m/lib/libc-musl.a(__fmt_a.o)
                                 0x28 (size before relaxing)

.text.__putc_unbuffered
                0x9d00b090       0x64
 .text.__putc_unbuffered
                0x9d00b090       0x64 /opt/microchip/xc32/v5.00/bin/bin/../../lib/gcc/pic32m/13.2.1/../../../../pic32m/lib/libc-musl.a(putc.o)
                0x9d00b090                __putc
                0x9d00b090                __putc_unbuffered

.text.sitofp    0x9d00b0f4       0x64
 .text.sitofp   0x9d00b0f4       0x64 /opt/microchip/xc32/v5.00/bin/bin/../../lib/gcc/pic32m/13.2.1/../../../../pic32m/lib/libm.a(sitofp.o)
                0x9d00b0f4                sitofp
                0x9d00b0f4                __floatsisf
                0x9d00b0f4                litofp

.text.__string_out
                0x9d00b158       0x60
 .text.__string_out
                0x9d00b158       0x60 /opt/microchip/xc32/v5.00/bin/bin/../../lib/gcc/pic32m/13.2.1/../../../../pic32m/lib/libc-musl.a(__printf_core.o)

.text.fwrite    0x9d00b1b8       0x60
 .text.fwrite   0x9d00b1b8       0x60 /opt/microchip/xc32/v5.00/bin/bin/../../lib/gcc/pic32m/13.2.1/../../../../pic32m/lib/libc-musl.a(fwrite.o)
                0x9d00b1b8                fwrite_unlocked
                0x9d00b1b8                fwrite

.text.fputs     0x9d00b218       0x5c
 .text.fputs    0x9d00b218       0x5c /opt/microchip/xc32/v5.00/bin/bin/../../lib/gcc/pic32m/13.2.1/../../../../pic32m/lib/libc-musl.a(fputs.o)
                0x9d00b218                fputs_unlocked
                0x9d00b218                fputs

.text.__pop_float
                0x9d00b274       0x58
 .text.__pop_float
                0x9d00b274       0x58 /opt/microchip/xc32/v5.00/bin/bin/../../lib/gcc/pic32m/13.2.1/../../../../pic32m/lib/libc-musl.a(__pop_float.o)
                0x9d00b274                __pop_float
                0x9d00b274                __pop_float_needed

.text.__fmt_state
                0x9d00b2cc       0x58
 .text.__fmt_state
                0x9d00b2cc       0x58 /opt/microchip/xc32/v5.00/bin/bin/../../lib/gcc/pic32m/13.2.1/../../../../pic32m/lib/libc-musl.a(__printf_core.o)
                0x9d00b2cc                __fmt_state

.text.main_entry
                0x9d00b324       0x54
 .text.main_entry
                0x9d00b324       0x54 /tmp/cckmVf8F.o
                0x9d00b358                __crt0_exit

.text.fflush    0x9d00b378       0x54
 .text.fflush   0x9d00b378       0x54 /opt/microchip/xc32/v5.00/bin/bin/../../lib/gcc/pic32m/13.2.1/../../../../pic32m/lib/libc-musl.a(fflush.o)
                0x9d00b378                fflush
                0x9d00b378                fflush_unlocked

.text.puts      0x9d00b3cc       0x4c
 .text.puts     0x9d00b3cc       0x4c /opt/microchip/xc32/v5.00/bin/bin/../../lib/gcc/pic32m/13.2.1/../../../../pic32m/lib/libc-musl.a(puts.o)
                0x9d00b3cc                puts

.text           0x9d00b418       0x48
 .text          0x9d00b418       0x48 /opt/microchip/xc32/v5.00/bin/bin/../../lib/gcc/pic32m/13.2.1/libgcc.a(floatunsisf.o)
                0x9d00b418                __floatunsisf

.text._bootstrap_exception_handler
                0x9d00b460       0x48
 .text._bootstrap_exception_handler
                0x9d00b460       0x48 /opt/microchip/xc32/v5.00/bin/bin/../../lib/gcc/pic32m/13.2.1/../../../../pic32m/lib/libpic32.a(default-bootstrap-exception-handler.o)
                0x9d00b460                _bootstrap_exception_handler

.text._general_exception_handler
                0x9d00b4a8       0x48
 .text._general_exception_handler
                0x9d00b4a8       0x48 /opt/microchip/xc32/v5.00/bin/bin/../../lib/gcc/pic32m/13.2.1/../../../../pic32m/lib/libpic32.a(default-general-exception-handler.o)
                0x9d00b4a8                _general_exception_handler

.vector_default
                0x9d00b4f0       0x48
 .vector_default
                0x9d00b4f0       0x48 /opt/microchip/xc32/v5.00/bin/bin/../../lib/gcc/pic32m/13.2.1/../../../../pic32m/lib/libpic32.a(defaultinterrupt.o)
                0x9d00b4f0                _DefaultInterrupt

.text           0x9d00b538       0x44
 .text          0x9d00b538       0x44 /opt/microchip/xc32/v5.00/bin/bin/../../lib/gcc/pic32m/13.2.1/../../../../pic32m/lib/pic32_software_reset.o
                0x9d00b538                __pic32_software_reset

.text.__assert_fail
                0x9d00b57c       0x44
 .text.__assert_fail
                0x9d00b57c       0x44 /opt/microchip/xc32/v5.00/bin/bin/../../lib/gcc/pic32m/13.2.1/../../../../pic32m/lib/libc-musl.a(assert.o)
                0x9d00b57c                __assert_fail

.rodata         0x9d00b5c0       0x80
 .rodata        0x9d00b5c0       0x40 build/default/production/FrameworkSource/ES_Framework.o
 .rodata        0x9d00b600       0x40 build/default/production/FrameworkSource/ES_Timers.o

.rodata.str1.4  0x9d00b640       0x40
 .rodata.str1.4
                0x9d00b640       0x40 /opt/microchip/xc32/v5.00/bin/bin/../../lib/gcc/pic32m/13.2.1/../../../../pic32m/lib/libc-musl.a(assert.o)
                                 0x23 (size before relaxing)

.rodata         0x9d00b680       0x3d
 .rodata        0x9d00b680       0x3d build/default/production/ProjectSource/CommandRetrieveService.o

.text.vfprintf  0x9d00b6c0       0x3c
 .text.vfprintf
                0x9d00b6c0       0x3c /opt/microchip/xc32/v5.00/bin/bin/../../lib/gcc/pic32m/13.2.1/../../../../pic32m/lib/libc-musl.a(vfprintf.o)
                0x9d00b6c0                vfprintf

.text           0x9d00b6fc       0x78
 .text          0x9d00b6fc       0x3c /opt/microchip/xc32/v5.00/bin/bin/../../lib/gcc/pic32m/13.2.1/libgcc.a(_lshrdi3.o)
                0x9d00b6fc                __lshrdi3
 .text          0x9d00b738       0x3c /opt/microchip/xc32/v5.00/bin/bin/../../lib/gcc/pic32m/13.2.1/libgcc.a(_ashldi3.o)
                0x9d00b738                __ashldi3

.rodata         0x9d00b774       0x2f
 .rodata        0x9d00b774       0x2f build/default/production/FrameworkSource/ES_LookupTables.o
                0x9d00b774                BitNum2SetMask
                0x9d00b794                Nybble2MSBitNum

.rodata         0x9d00b7a4       0x2f
 .rodata        0x9d00b7a4       0x2f build/default/production/FrameworkSource/terminal.o

.text.__init_stderr
                0x9d00b7d4       0x2c
 .text.__init_stderr
                0x9d00b7d4       0x2c /opt/microchip/xc32/v5.00/bin/bin/../../lib/gcc/pic32m/13.2.1/../../../../pic32m/lib/libc-musl.a(stderr.o)
                0x9d00b7d4                __init_stderr

.text.memcpy    0x9d00b800       0x2c
 .text.memcpy   0x9d00b800       0x2c /opt/microchip/xc32/v5.00/bin/bin/../../lib/gcc/pic32m/13.2.1/../../../../pic32m/lib/libc-size-musl.a(memcpy.o)
                0x9d00b800                memcpy

.text.strlen    0x9d00b82c       0x2c
 .text.strlen   0x9d00b82c       0x2c /opt/microchip/xc32/v5.00/bin/bin/../../lib/gcc/pic32m/13.2.1/../../../../pic32m/lib/libc-size-musl.a(strlen.o)
                0x9d00b82c                strlen

.text.fprintf   0x9d00b858       0x28
 .text.fprintf  0x9d00b858       0x28 /opt/microchip/xc32/v5.00/bin/bin/../../lib/gcc/pic32m/13.2.1/../../../../pic32m/lib/libc-musl.a(fprintf.o)
                0x9d00b858                fprintf

.text.memset    0x9d00b880       0x28
 .text.memset   0x9d00b880       0x28 /opt/microchip/xc32/v5.00/bin/bin/../../lib/gcc/pic32m/13.2.1/../../../../pic32m/lib/libc-size-musl.a(memset.o)
                0x9d00b880                memset

.text.strcpy    0x9d00b8a8       0x28
 .text.strcpy   0x9d00b8a8       0x28 /opt/microchip/xc32/v5.00/bin/bin/../../lib/gcc/pic32m/13.2.1/../../../../pic32m/lib/libc-size-musl.a(strcpy.o)
                0x9d00b8a8                strcpy

.rodata         0x9d00b8d0       0x24
 .rodata        0x9d00b8d0       0x24 build/default/production/ProjectSource/CommonDefinitions.o
                0x9d00b8d0                PrescaleLookup
                0x9d00b8d8                validCommandBytes

.text.__init_stdio
                0x9d00b8f4       0x24
 .text.__init_stdio
                0x9d00b8f4       0x24 /opt/microchip/xc32/v5.00/bin/bin/../../lib/gcc/pic32m/13.2.1/../../../../pic32m/lib/libc-musl.a(__init_stdio.o)
                0x9d00b8f4                __init_stdio
                0x9d00b8f4                __init_stdio_needed

.text.__init_stdout
                0x9d00b918       0x20
 .text.__init_stdout
                0x9d00b918       0x20 /opt/microchip/xc32/v5.00/bin/bin/../../lib/gcc/pic32m/13.2.1/../../../../pic32m/lib/libc-musl.a(stdout.o)
                0x9d00b918                __init_stdout

.text.stpcpy    0x9d00b938       0x20
 .text.stpcpy   0x9d00b938       0x20 /opt/microchip/xc32/v5.00/bin/bin/../../lib/gcc/pic32m/13.2.1/../../../../pic32m/lib/libc-size-musl.a(stpcpy.o)
                0x9d00b938                stpcpy
                0x9d00b938                __stpcpy

.text           0x9d00b958       0x20
 .text          0x9d00b958       0x20 /opt/microchip/xc32/v5.00/bin/bin/../../lib/gcc/pic32m/13.2.1/../../../../pic32m/lib/libpic32.a(pic32_data_init_copy.o)
                0x9d00b958                __dinit_copy
                0x9d00b958                __dinit_copy_needed

.text.tolower   0x9d00b978       0x1c
 .text.tolower  0x9d00b978       0x1c /opt/microchip/xc32/v5.00/bin/bin/../../lib/gcc/pic32m/13.2.1/../../../../pic32m/lib/libc-musl.a(tolower.o)
                0x9d00b978                tolower

.text.toupper   0x9d00b994       0x1c
 .text.toupper  0x9d00b994       0x1c /opt/microchip/xc32/v5.00/bin/bin/../../lib/gcc/pic32m/13.2.1/../../../../pic32m/lib/libc-musl.a(toupper.o)
                0x9d00b994                toupper

.rodata         0x9d00b9b0       0x19
 .rodata        0x9d00b9b0       0x19 build/default/production/FrameworkSource/dbprintf.o

.MIPS.abiflags  0x9d00b9d0       0x18
 .MIPS.abiflags
                0x9d00b9d0       0x18 build/default/production/FrameworkSource/ES_CheckEvents.o

.text           0x9d00b9e8       0x30
 .text          0x9d00b9e8       0x18 /opt/microchip/xc32/v5.00/bin/bin/../../lib/gcc/pic32m/13.2.1/../../../../pic32m/lib/libpic32.a(default-nmi-handler.o)
                0x9d00b9e8                _nmi_handler
 .text          0x9d00ba00       0x18 /opt/microchip/xc32/v5.00/bin/bin/../../lib/gcc/pic32m/13.2.1/../../../../pic32m/lib/libpic32.a(pic32_data_init_clear.o)
                0x9d00ba00                __dinit_clear_needed
                0x9d00ba00                __dinit_clear

.rodata         0x9d00ba18       0x16
 .rodata        0x9d00ba18       0x16 /opt/microchip/xc32/v5.00/bin/bin/../../lib/gcc/pic32m/13.2.1/../../../../pic32m/lib/libc-musl.a(__printf_core.o)

.rodata         0x9d00ba30       0x14
 .rodata        0x9d00ba30       0x14 /opt/microchip/xc32/v5.00/bin/bin/../../lib/gcc/pic32m/13.2.1/../../../../pic32m/lib/libpic32.a(pic32_data_init_core.o)

.text.__abort   0x9d00ba44       0x10
 .text.__abort  0x9d00ba44       0x10 /opt/microchip/xc32/v5.00/bin/bin/../../lib/gcc/pic32m/13.2.1/../../../../pic32m/lib/libc-musl.a(abort.o)
                0x9d00ba44                abort

.text.putchar   0x9d00ba54       0x10
 .text.putchar  0x9d00ba54       0x10 /opt/microchip/xc32/v5.00/bin/bin/../../lib/gcc/pic32m/13.2.1/../../../../pic32m/lib/libc-musl.a(putchar.o)
                0x9d00ba54                putchar

.text._Exit     0x9d00ba64       0x10
 .text._Exit    0x9d00ba64       0x10 /opt/microchip/xc32/v5.00/bin/bin/../../lib/gcc/pic32m/13.2.1/../../../../pic32m/lib/libc-musl.a(_Exit.o)
                0x9d00ba64                _Exit

.rodata         0x9d00ba74        0xc
 .rodata        0x9d00ba74        0xc build/default/production/FrameworkSource/ES_CheckEvents.o

.text.__dummy   0x9d00ba80        0xc
 .text.__dummy  0x9d00ba80        0xc /opt/microchip/xc32/v5.00/bin/bin/../../lib/gcc/pic32m/13.2.1/../../../../pic32m/lib/libc-musl.a(stderr.o)
                0x9d00ba80                __get_stderr

.text._on_reset
                0x9d00ba8c        0x8
 .text._on_reset
                0x9d00ba8c        0x8 /opt/microchip/xc32/v5.00/bin/bin/../../lib/gcc/pic32m/13.2.1/../../../../pic32m/lib/libpic32.a(default-on-reset.o)
                0x9d00ba8c                _on_reset

.text._on_bootstrap
                0x9d00ba94        0x8
 .text._on_bootstrap
                0x9d00ba94        0x8 /opt/microchip/xc32/v5.00/bin/bin/../../lib/gcc/pic32m/13.2.1/../../../../pic32m/lib/libpic32.a(default-on-bootstrap.o)
                0x9d00ba94                _on_bootstrap

.text.__dummy1  0x9d00ba9c        0x8
 .text.__dummy1
                0x9d00ba9c        0x8 /opt/microchip/xc32/v5.00/bin/bin/../../lib/gcc/pic32m/13.2.1/../../../../pic32m/lib/libc-musl.a(fflush.o)
                0x9d00ba9c                __fflush_ofl

.text.__dummy2  0x9d00baa4        0x8
 .text.__dummy2
                0x9d00baa4        0x8 /opt/microchip/xc32/v5.00/bin/bin/../../lib/gcc/pic32m/13.2.1/../../../../pic32m/lib/libc-musl.a(fflush.o)
                0x9d00baa4                __fclose

.text.__dummy_seek
                0x9d00baac        0x8
 .text.__dummy_seek
                0x9d00baac        0x8 /opt/microchip/xc32/v5.00/bin/bin/../../lib/gcc/pic32m/13.2.1/../../../../pic32m/lib/libc-musl.a(stderr.o)
                0x9d00baac                __stdio_seek_rw

.text.__fwrite_min
                0x9d00bab4        0x8
 .text.__fwrite_min
                0x9d00bab4        0x8 /opt/microchip/xc32/v5.00/bin/bin/../../lib/gcc/pic32m/13.2.1/../../../../pic32m/lib/libc-musl.a(__out.o)
                0x9d00bab4                __stdio_write
                0x9d00bab4                __fwrite
                0x9d00bab4                __stdio_write_unbuffered

.text.__dummy_fmt3
                0x9d00babc        0x8
 .text.__dummy_fmt3
                0x9d00babc        0x8 /opt/microchip/xc32/v5.00/bin/bin/../../lib/gcc/pic32m/13.2.1/../../../../pic32m/lib/libc-musl.a(__printf_core.o)

.text.__dummy_fmt4
                0x9d00bac4        0x8
 .text.__dummy_fmt4
                0x9d00bac4        0x8 /opt/microchip/xc32/v5.00/bin/bin/../../lib/gcc/pic32m/13.2.1/../../../../pic32m/lib/libc-musl.a(__printf_core.o)

.text.__dummy_fmts
                0x9d00bacc        0x8
 .text.__dummy_fmts
                0x9d00bacc        0x8 /opt/microchip/xc32/v5.00/bin/bin/../../lib/gcc/pic32m/13.2.1/../../../../pic32m/lib/libc-musl.a(__printf_core.o)

.text.__fwrite_min
                0x9d00bad4        0x8
 .text.__fwrite_min
                0x9d00bad4        0x8 /opt/microchip/xc32/v5.00/bin/bin/../../lib/gcc/pic32m/13.2.1/../../../../pic32m/lib/libc-musl.a(fwrite.o)

.text.putc      0x9d00badc        0x8
 .text.putc     0x9d00badc        0x8 /opt/microchip/xc32/v5.00/bin/bin/../../lib/gcc/pic32m/13.2.1/../../../../pic32m/lib/libc-musl.a(putc.o)
                0x9d00badc                putc_unlocked
                0x9d00badc                putc
                0x9d00badc                fputc
                0x9d00badc                _IO_putc

.text.__dummy   0x9d00bae4        0x8
 .text.__dummy  0x9d00bae4        0x8 /opt/microchip/xc32/v5.00/bin/bin/../../lib/gcc/pic32m/13.2.1/../../../../pic32m/lib/libc-musl.a(stdout.o)
                0x9d00bae4                __stdio_seek

.text.__tolower_l
                0x9d00baec        0x8
 .text.__tolower_l
                0x9d00baec        0x8 /opt/microchip/xc32/v5.00/bin/bin/../../lib/gcc/pic32m/13.2.1/../../../../pic32m/lib/libc-musl.a(tolower.o)
                0x9d00baec                __tolower_l
                0x9d00baec                tolower_l

.text.__dummy   0x9d00baf4        0x8
 .text.__dummy  0x9d00baf4        0x8 /opt/microchip/xc32/v5.00/bin/bin/../../lib/gcc/pic32m/13.2.1/../../../../pic32m/lib/libc-musl.a(__init_stdio.o)
                0x9d00baf4                __init_stdin

.text.__toupper_l
                0x9d00bafc        0x8
 .text.__toupper_l
                0x9d00bafc        0x8 /opt/microchip/xc32/v5.00/bin/bin/../../lib/gcc/pic32m/13.2.1/../../../../pic32m/lib/libc-musl.a(toupper.o)
                0x9d00bafc                toupper_l
                0x9d00bafc                __toupper_l

.text._exit     0x9d00bb04        0x8
 .text._exit    0x9d00bb04        0x8 /opt/microchip/xc32/v5.00/bin/bin/../../lib/gcc/pic32m/13.2.1/../../../../pic32m/lib/libpic32.a(_exit.o)
                0x9d00bb04                _exit

.text.lseek     0x9d00bb0c        0x8
 .text.lseek    0x9d00bb0c        0x8 /opt/microchip/xc32/v5.00/bin/bin/../../lib/gcc/pic32m/13.2.1/../../../../pic32m/lib/libpic32.a(lseek.o)
                0x9d00bb0c                lseek

.text.close     0x9d00bb14        0x8
 .text.close    0x9d00bb14        0x8 /opt/microchip/xc32/v5.00/bin/bin/../../lib/gcc/pic32m/13.2.1/../../../../pic32m/lib/libpic32.a(close.o)
                0x9d00bb14                close

.text%z286      0x00000000        0x0
 .text          0x00000000        0x0 /opt/microchip/xc32/v5.00/bin/bin/../../lib/gcc/pic32m/13.2.1/../../../../pic32m/lib/libe.a(_floatdidf.o)

.text%z287      0x00000000        0x0
 .text          0x00000000        0x0 /opt/microchip/xc32/v5.00/bin/bin/../../lib/gcc/pic32m/13.2.1/../../../../pic32m/lib/libm.a(fptodp.o)

.text%z288      0x00000000        0x0
 .text          0x00000000        0x0 /opt/microchip/xc32/v5.00/bin/bin/../../lib/gcc/pic32m/13.2.1/../../../../pic32m/lib/libm.a(dptofp.o)

.text%z289      0x00000000        0x0
 .text          0x00000000        0x0 /opt/microchip/xc32/v5.00/bin/bin/../../lib/gcc/pic32m/13.2.1/../../../../pic32m/lib/libc-size-musl.a(stpcpy.o)

.text%z290      0x00000000        0x0
 .text          0x00000000        0x0 /opt/microchip/xc32/v5.00/bin/bin/../../lib/gcc/pic32m/13.2.1/../../../../pic32m/lib/libc-size-musl.a(strcpy.o)

.text%z291      0x00000000        0x0
 .text          0x00000000        0x0 /opt/microchip/xc32/v5.00/bin/bin/../../lib/gcc/pic32m/13.2.1/../../../../pic32m/lib/libc-size-musl.a(strlen.o)

.text%z292      0x00000000        0x0
 .text          0x00000000        0x0 /opt/microchip/xc32/v5.00/bin/bin/../../lib/gcc/pic32m/13.2.1/../../../../pic32m/lib/libc-size-musl.a(memset.o)

.text%z293      0x00000000        0x0
 .text          0x00000000        0x0 /opt/microchip/xc32/v5.00/bin/bin/../../lib/gcc/pic32m/13.2.1/../../../../pic32m/lib/libc-size-musl.a(memcpy.o)

.text%z294      0x00000000        0x0
 .text          0x00000000        0x0 /opt/microchip/xc32/v5.00/bin/bin/../../lib/gcc/pic32m/13.2.1/../../../../pic32m/lib/libpic32.a(errno.o)

.text%z295      0x00000000        0x0
 .text          0x00000000        0x0 /opt/microchip/xc32/v5.00/bin/bin/../../lib/gcc/pic32m/13.2.1/../../../../pic32m/lib/libpic32.a(close.o)

.text%z296      0x00000000        0x0
 .text          0x00000000        0x0 /opt/microchip/xc32/v5.00/bin/bin/../../lib/gcc/pic32m/13.2.1/../../../../pic32m/lib/libpic32.a(lseek.o)

.text%z297      0x00000000        0x0
 .text          0x00000000        0x0 /opt/microchip/xc32/v5.00/bin/bin/../../lib/gcc/pic32m/13.2.1/../../../../pic32m/lib/libpic32.a(write.o)

.text%z298      0x00000000        0x0
 .text          0x00000000        0x0 /opt/microchip/xc32/v5.00/bin/bin/../../lib/gcc/pic32m/13.2.1/../../../../pic32m/lib/libpic32.a(_exit.o)

.text%z299      0x00000000        0x0
 .text          0x00000000        0x0 /opt/microchip/xc32/v5.00/bin/bin/../../lib/gcc/pic32m/13.2.1/../../../../pic32m/lib/libm-musl.a(scalbn.o)

.text%z300      0x00000000        0x0
 .text          0x00000000        0x0 /opt/microchip/xc32/v5.00/bin/bin/../../lib/gcc/pic32m/13.2.1/../../../../pic32m/lib/libm-musl.a(fma.o)

.text%z301      0x00000000        0x0
 .text          0x00000000        0x0 /opt/microchip/xc32/v5.00/bin/bin/../../lib/gcc/pic32m/13.2.1/../../../../pic32m/lib/libm.a(sitofp.o)

.text%z302      0x00000000        0x0
 .text          0x00000000        0x0 /opt/microchip/xc32/v5.00/bin/bin/../../lib/gcc/pic32m/13.2.1/../../../../pic32m/lib/libm.a(fp32subadd.o)

.text%z303      0x00000000        0x0
 .text          0x00000000        0x0 /opt/microchip/xc32/v5.00/bin/bin/../../lib/gcc/pic32m/13.2.1/../../../../pic32m/lib/libm.a(fp32mul.o)

.text%z304      0x00000000        0x0
 .text          0x00000000        0x0 /opt/microchip/xc32/v5.00/bin/bin/../../lib/gcc/pic32m/13.2.1/../../../../pic32m/lib/libm.a(fp32div.o)

.text%z305      0x00000000        0x0
 .text          0x00000000        0x0 /opt/microchip/xc32/v5.00/bin/bin/../../lib/gcc/pic32m/13.2.1/../../../../pic32m/lib/libm.a(dptoli.o)

.text%z306      0x00000000        0x0
 .text          0x00000000        0x0 /opt/microchip/xc32/v5.00/bin/bin/../../lib/gcc/pic32m/13.2.1/../../../../pic32m/lib/libm.a(dpcmplt.o)

.text%z307      0x00000000        0x0
 .text          0x00000000        0x0 /opt/microchip/xc32/v5.00/bin/bin/../../lib/gcc/pic32m/13.2.1/../../../../pic32m/lib/libm.a(dpcmp.o)

.text%z308      0x00000000        0x0
 .text          0x00000000        0x0 /opt/microchip/xc32/v5.00/bin/bin/../../lib/gcc/pic32m/13.2.1/../../../../pic32m/lib/libm.a(dp32subadd.o)

.text%z309      0x00000000        0x0
 .text          0x00000000        0x0 /opt/microchip/xc32/v5.00/bin/bin/../../lib/gcc/pic32m/13.2.1/../../../../pic32m/lib/libm.a(dp32mul.o)

.text%z310      0x00000000        0x0
 .text          0x00000000        0x0 /opt/microchip/xc32/v5.00/bin/bin/../../lib/gcc/pic32m/13.2.1/../../../../pic32m/lib/libm.a(dp32div.o)

.text%z311      0x00000000        0x0
 .text          0x00000000        0x0 /opt/microchip/xc32/v5.00/bin/bin/../../lib/gcc/pic32m/13.2.1/../../../../pic32m/lib/libc-musl.a(__cvt_u.o)

.text%z312      0x00000000        0x0
 .text          0x00000000        0x0 /opt/microchip/xc32/v5.00/bin/bin/../../lib/gcc/pic32m/13.2.1/../../../../pic32m/lib/libc-musl.a(toupper.o)

.text%z313      0x00000000        0x0
 .text          0x00000000        0x0 /opt/microchip/xc32/v5.00/bin/bin/../../lib/gcc/pic32m/13.2.1/../../../../pic32m/lib/libc-musl.a(__io_file_needed.o)

.text%z314      0x00000000        0x0
 .text          0x00000000        0x0 /opt/microchip/xc32/v5.00/bin/bin/../../lib/gcc/pic32m/13.2.1/../../../../pic32m/lib/libc-musl.a(__init_stdio.o)

.text%z315      0x00000000        0x0
 .text          0x00000000        0x0 /opt/microchip/xc32/v5.00/bin/bin/../../lib/gcc/pic32m/13.2.1/../../../../pic32m/lib/libc-musl.a(__fmt_x.o)

.text%z316      0x00000000        0x0
 .text          0x00000000        0x0 /opt/microchip/xc32/v5.00/bin/bin/../../lib/gcc/pic32m/13.2.1/../../../../pic32m/lib/libc-musl.a(__fmt_u.o)

.text%z317      0x00000000        0x0
 .text          0x00000000        0x0 /opt/microchip/xc32/v5.00/bin/bin/../../lib/gcc/pic32m/13.2.1/../../../../pic32m/lib/libc-musl.a(__fmt_s.o)

.text%z318      0x00000000        0x0
 .text          0x00000000        0x0 /opt/microchip/xc32/v5.00/bin/bin/../../lib/gcc/pic32m/13.2.1/../../../../pic32m/lib/libc-musl.a(__fmt_o.o)

.text%z319      0x00000000        0x0
 .text          0x00000000        0x0 /opt/microchip/xc32/v5.00/bin/bin/../../lib/gcc/pic32m/13.2.1/../../../../pic32m/lib/libc-musl.a(__fmt_fp.o)

.text%z320      0x00000000        0x0
 .text          0x00000000        0x0 /opt/microchip/xc32/v5.00/bin/bin/../../lib/gcc/pic32m/13.2.1/../../../../pic32m/lib/libc-musl.a(__fmt_d.o)

.text%z321      0x00000000        0x0
 .text          0x00000000        0x0 /opt/microchip/xc32/v5.00/bin/bin/../../lib/gcc/pic32m/13.2.1/../../../../pic32m/lib/libc-musl.a(__fmt_a.o)

.text%z322      0x00000000        0x0
 .text          0x00000000        0x0 /opt/microchip/xc32/v5.00/bin/bin/../../lib/gcc/pic32m/13.2.1/../../../../pic32m/lib/libc-musl.a(tolower.o)

.text%z323      0x00000000        0x0
 .text          0x00000000        0x0 /opt/microchip/xc32/v5.00/bin/bin/../../lib/gcc/pic32m/13.2.1/../../../../pic32m/lib/libc-musl.a(atoi.o)

.text%z324      0x00000000        0x0
 .text          0x00000000        0x0 /opt/microchip/xc32/v5.00/bin/bin/../../lib/gcc/pic32m/13.2.1/../../../../pic32m/lib/libc-musl.a(stdout.o)

.text%z325      0x00000000        0x0
 .text          0x00000000        0x0 /opt/microchip/xc32/v5.00/bin/bin/../../lib/gcc/pic32m/13.2.1/../../../../pic32m/lib/libc-musl.a(putc.o)

.text%z326      0x00000000        0x0
 .text          0x00000000        0x0 /opt/microchip/xc32/v5.00/bin/bin/../../lib/gcc/pic32m/13.2.1/../../../../pic32m/lib/libc-musl.a(fwrite.o)

.text%z327      0x00000000        0x0
 .text          0x00000000        0x0 /opt/microchip/xc32/v5.00/bin/bin/../../lib/gcc/pic32m/13.2.1/../../../../pic32m/lib/libc-musl.a(__stdio_close.o)

.text%z328      0x00000000        0x0
 .text          0x00000000        0x0 /opt/microchip/xc32/v5.00/bin/bin/../../lib/gcc/pic32m/13.2.1/../../../../pic32m/lib/libc-musl.a(__printf_core.o)

.text%z329      0x00000000        0x0
 .text          0x00000000        0x0 /opt/microchip/xc32/v5.00/bin/bin/../../lib/gcc/pic32m/13.2.1/../../../../pic32m/lib/libc-musl.a(__pop_ptr.o)

.text%z330      0x00000000        0x0
 .text          0x00000000        0x0 /opt/microchip/xc32/v5.00/bin/bin/../../lib/gcc/pic32m/13.2.1/../../../../pic32m/lib/libc-musl.a(__pop_int.o)

.text%z331      0x00000000        0x0
 .text          0x00000000        0x0 /opt/microchip/xc32/v5.00/bin/bin/../../lib/gcc/pic32m/13.2.1/../../../../pic32m/lib/libc-musl.a(__pop_float.o)

.text%z332      0x00000000        0x0
 .text          0x00000000        0x0 /opt/microchip/xc32/v5.00/bin/bin/../../lib/gcc/pic32m/13.2.1/../../../../pic32m/lib/libc-musl.a(__out.o)

.text%z333      0x00000000        0x0
 .text          0x00000000        0x0 /opt/microchip/xc32/v5.00/bin/bin/../../lib/gcc/pic32m/13.2.1/../../../../pic32m/lib/libc-musl.a(__io_init_needed.o)

.text%z334      0x00000000        0x0
 .text          0x00000000        0x0 /opt/microchip/xc32/v5.00/bin/bin/../../lib/gcc/pic32m/13.2.1/../../../../pic32m/lib/libc-musl.a(__io_fmt_needed.o)

.text%z335      0x00000000        0x0
 .text          0x00000000        0x0 /opt/microchip/xc32/v5.00/bin/bin/../../lib/gcc/pic32m/13.2.1/../../../../pic32m/lib/libc-musl.a(fputs.o)

.text%z336      0x00000000        0x0
 .text          0x00000000        0x0 /opt/microchip/xc32/v5.00/bin/bin/../../lib/gcc/pic32m/13.2.1/../../../../pic32m/lib/libc-musl.a(_Exit.o)

.text%z337      0x00000000        0x0
 .text          0x00000000        0x0 /opt/microchip/xc32/v5.00/bin/bin/../../lib/gcc/pic32m/13.2.1/../../../../pic32m/lib/libc-musl.a(puts.o)

.text%z338      0x00000000        0x0
 .text          0x00000000        0x0 /opt/microchip/xc32/v5.00/bin/bin/../../lib/gcc/pic32m/13.2.1/../../../../pic32m/lib/libc-musl.a(putchar.o)

.text%z339      0x00000000        0x0
 .text          0x00000000        0x0 /opt/microchip/xc32/v5.00/bin/bin/../../lib/gcc/pic32m/13.2.1/../../../../pic32m/lib/libc-musl.a(stderr.o)

.text%z340      0x00000000        0x0
 .text          0x00000000        0x0 /opt/microchip/xc32/v5.00/bin/bin/../../lib/gcc/pic32m/13.2.1/../../../../pic32m/lib/libc-musl.a(vfprintf.o)

.text%z341      0x00000000        0x0
 .text          0x00000000        0x0 /opt/microchip/xc32/v5.00/bin/bin/../../lib/gcc/pic32m/13.2.1/../../../../pic32m/lib/libc-musl.a(fflush.o)

.text%z342      0x00000000        0x0
 .text          0x00000000        0x0 /opt/microchip/xc32/v5.00/bin/bin/../../lib/gcc/pic32m/13.2.1/../../../../pic32m/lib/libc-musl.a(fprintf.o)

.text%z343      0x00000000        0x0
 .text          0x00000000        0x0 /opt/microchip/xc32/v5.00/bin/bin/../../lib/gcc/pic32m/13.2.1/../../../../pic32m/lib/libc-musl.a(abort.o)

.text%z344      0x00000000        0x0
 .text          0x00000000        0x0 /opt/microchip/xc32/v5.00/bin/bin/../../lib/gcc/pic32m/13.2.1/../../../../pic32m/lib/libc-musl.a(assert.o)

.text%z345      0x00000000        0x0
 .text          0x00000000        0x0 /opt/microchip/xc32/v5.00/bin/bin/../../lib/gcc/pic32m/13.2.1/../../../../pic32m/lib/libpic32.a(defaultinterrupt.o)

.text%z346      0x00000000        0x0
 .text          0x00000000        0x0 /opt/microchip/xc32/v5.00/bin/bin/../../lib/gcc/pic32m/13.2.1/../../../../pic32m/lib/libpic32.a(default-general-exception-handler.o)

.text%z347      0x00000000        0x0
 .text          0x00000000        0x0 /opt/microchip/xc32/v5.00/bin/bin/../../lib/gcc/pic32m/13.2.1/../../../../pic32m/lib/libpic32.a(vector43.o)

.text%z348      0x00000000        0x0
 .text          0x00000000        0x0 /opt/microchip/xc32/v5.00/bin/bin/../../lib/gcc/pic32m/13.2.1/../../../../pic32m/lib/libpic32.a(vector42.o)

.text%z349      0x00000000        0x0
 .text          0x00000000        0x0 /opt/microchip/xc32/v5.00/bin/bin/../../lib/gcc/pic32m/13.2.1/../../../../pic32m/lib/libpic32.a(vector41.o)

.text%z350      0x00000000        0x0
 .text          0x00000000        0x0 /opt/microchip/xc32/v5.00/bin/bin/../../lib/gcc/pic32m/13.2.1/../../../../pic32m/lib/libpic32.a(vector40.o)

.text%z351      0x00000000        0x0
 .text          0x00000000        0x0 /opt/microchip/xc32/v5.00/bin/bin/../../lib/gcc/pic32m/13.2.1/../../../../pic32m/lib/libpic32.a(vector39.o)

.text%z352      0x00000000        0x0
 .text          0x00000000        0x0 /opt/microchip/xc32/v5.00/bin/bin/../../lib/gcc/pic32m/13.2.1/../../../../pic32m/lib/libpic32.a(vector38.o)

.text%z353      0x00000000        0x0
 .text          0x00000000        0x0 /opt/microchip/xc32/v5.00/bin/bin/../../lib/gcc/pic32m/13.2.1/../../../../pic32m/lib/libpic32.a(vector37.o)

.text%z354      0x00000000        0x0
 .text          0x00000000        0x0 /opt/microchip/xc32/v5.00/bin/bin/../../lib/gcc/pic32m/13.2.1/../../../../pic32m/lib/libpic32.a(vector36.o)

.text%z355      0x00000000        0x0
 .text          0x00000000        0x0 /opt/microchip/xc32/v5.00/bin/bin/../../lib/gcc/pic32m/13.2.1/../../../../pic32m/lib/libpic32.a(vector35.o)

.text%z356      0x00000000        0x0
 .text          0x00000000        0x0 /opt/microchip/xc32/v5.00/bin/bin/../../lib/gcc/pic32m/13.2.1/../../../../pic32m/lib/libpic32.a(vector34.o)

.text%z357      0x00000000        0x0
 .text          0x00000000        0x0 /opt/microchip/xc32/v5.00/bin/bin/../../lib/gcc/pic32m/13.2.1/../../../../pic32m/lib/libpic32.a(vector33.o)

.text%z358      0x00000000        0x0
 .text          0x00000000        0x0 /opt/microchip/xc32/v5.00/bin/bin/../../lib/gcc/pic32m/13.2.1/../../../../pic32m/lib/libpic32.a(vector32.o)

.text%z359      0x00000000        0x0
 .text          0x00000000        0x0 /opt/microchip/xc32/v5.00/bin/bin/../../lib/gcc/pic32m/13.2.1/../../../../pic32m/lib/libpic32.a(vector31.o)

.text%z360      0x00000000        0x0
 .text          0x00000000        0x0 /opt/microchip/xc32/v5.00/bin/bin/../../lib/gcc/pic32m/13.2.1/../../../../pic32m/lib/libpic32.a(vector30.o)

.text%z361      0x00000000        0x0
 .text          0x00000000        0x0 /opt/microchip/xc32/v5.00/bin/bin/../../lib/gcc/pic32m/13.2.1/../../../../pic32m/lib/libpic32.a(vector29.o)

.text%z362      0x00000000        0x0
 .text          0x00000000        0x0 /opt/microchip/xc32/v5.00/bin/bin/../../lib/gcc/pic32m/13.2.1/../../../../pic32m/lib/libpic32.a(vector28.o)

.text%z363      0x00000000        0x0
 .text          0x00000000        0x0 /opt/microchip/xc32/v5.00/bin/bin/../../lib/gcc/pic32m/13.2.1/../../../../pic32m/lib/libpic32.a(vector27.o)

.text%z364      0x00000000        0x0
 .text          0x00000000        0x0 /opt/microchip/xc32/v5.00/bin/bin/../../lib/gcc/pic32m/13.2.1/../../../../pic32m/lib/libpic32.a(vector26.o)

.text%z365      0x00000000        0x0
 .text          0x00000000        0x0 /opt/microchip/xc32/v5.00/bin/bin/../../lib/gcc/pic32m/13.2.1/../../../../pic32m/lib/libpic32.a(vector25.o)

.text%z366      0x00000000        0x0
 .text          0x00000000        0x0 /opt/microchip/xc32/v5.00/bin/bin/../../lib/gcc/pic32m/13.2.1/../../../../pic32m/lib/libpic32.a(vector24.o)

.text%z367      0x00000000        0x0
 .text          0x00000000        0x0 /opt/microchip/xc32/v5.00/bin/bin/../../lib/gcc/pic32m/13.2.1/../../../../pic32m/lib/libpic32.a(vector23.o)

.text%z368      0x00000000        0x0
 .text          0x00000000        0x0 /opt/microchip/xc32/v5.00/bin/bin/../../lib/gcc/pic32m/13.2.1/../../../../pic32m/lib/libpic32.a(vector22.o)

.text%z369      0x00000000        0x0
 .text          0x00000000        0x0 /opt/microchip/xc32/v5.00/bin/bin/../../lib/gcc/pic32m/13.2.1/../../../../pic32m/lib/libpic32.a(vector21.o)

.text%z370      0x00000000        0x0
 .text          0x00000000        0x0 /opt/microchip/xc32/v5.00/bin/bin/../../lib/gcc/pic32m/13.2.1/../../../../pic32m/lib/libpic32.a(vector20.o)

.text%z371      0x00000000        0x0
 .text          0x00000000        0x0 /opt/microchip/xc32/v5.00/bin/bin/../../lib/gcc/pic32m/13.2.1/../../../../pic32m/lib/libpic32.a(vector19.o)

.text%z372      0x00000000        0x0
 .text          0x00000000        0x0 /opt/microchip/xc32/v5.00/bin/bin/../../lib/gcc/pic32m/13.2.1/../../../../pic32m/lib/libpic32.a(vector18.o)

.text%z373      0x00000000        0x0
 .text          0x00000000        0x0 /opt/microchip/xc32/v5.00/bin/bin/../../lib/gcc/pic32m/13.2.1/../../../../pic32m/lib/libpic32.a(vector17.o)

.text%z374      0x00000000        0x0
 .text          0x00000000        0x0 /opt/microchip/xc32/v5.00/bin/bin/../../lib/gcc/pic32m/13.2.1/../../../../pic32m/lib/libpic32.a(vector16.o)

.text%z375      0x00000000        0x0
 .text          0x00000000        0x0 /opt/microchip/xc32/v5.00/bin/bin/../../lib/gcc/pic32m/13.2.1/../../../../pic32m/lib/libpic32.a(vector15.o)

.text%z376      0x00000000        0x0
 .text          0x00000000        0x0 /opt/microchip/xc32/v5.00/bin/bin/../../lib/gcc/pic32m/13.2.1/../../../../pic32m/lib/libpic32.a(vector14.o)

.text%z377      0x00000000        0x0
 .text          0x00000000        0x0 /opt/microchip/xc32/v5.00/bin/bin/../../lib/gcc/pic32m/13.2.1/../../../../pic32m/lib/libpic32.a(vector13.o)

.text%z378      0x00000000        0x0
 .text          0x00000000        0x0 /opt/microchip/xc32/v5.00/bin/bin/../../lib/gcc/pic32m/13.2.1/../../../../pic32m/lib/libpic32.a(vector12.o)

.text%z379      0x00000000        0x0
 .text          0x00000000        0x0 /opt/microchip/xc32/v5.00/bin/bin/../../lib/gcc/pic32m/13.2.1/../../../../pic32m/lib/libpic32.a(vector11.o)

.text%z380      0x00000000        0x0
 .text          0x00000000        0x0 /opt/microchip/xc32/v5.00/bin/bin/../../lib/gcc/pic32m/13.2.1/../../../../pic32m/lib/libpic32.a(vector10.o)

.text%z381      0x00000000        0x0
 .text          0x00000000        0x0 /opt/microchip/xc32/v5.00/bin/bin/../../lib/gcc/pic32m/13.2.1/../../../../pic32m/lib/libpic32.a(vector9.o)

.text%z382      0x00000000        0x0
 .text          0x00000000        0x0 /opt/microchip/xc32/v5.00/bin/bin/../../lib/gcc/pic32m/13.2.1/../../../../pic32m/lib/libpic32.a(vector8.o)

.text%z383      0x00000000        0x0
 .text          0x00000000        0x0 /opt/microchip/xc32/v5.00/bin/bin/../../lib/gcc/pic32m/13.2.1/../../../../pic32m/lib/libpic32.a(vector7.o)

.text%z384      0x00000000        0x0
 .text          0x00000000        0x0 /opt/microchip/xc32/v5.00/bin/bin/../../lib/gcc/pic32m/13.2.1/../../../../pic32m/lib/libpic32.a(vector6.o)

.text%z385      0x00000000        0x0
 .text          0x00000000        0x0 /opt/microchip/xc32/v5.00/bin/bin/../../lib/gcc/pic32m/13.2.1/../../../../pic32m/lib/libpic32.a(vector5.o)

.text%z386      0x00000000        0x0
 .text          0x00000000        0x0 /opt/microchip/xc32/v5.00/bin/bin/../../lib/gcc/pic32m/13.2.1/../../../../pic32m/lib/libpic32.a(vector4.o)

.text%z387      0x00000000        0x0
 .text          0x00000000        0x0 /opt/microchip/xc32/v5.00/bin/bin/../../lib/gcc/pic32m/13.2.1/../../../../pic32m/lib/libpic32.a(vector3.o)

.text%z388      0x00000000        0x0
 .text          0x00000000        0x0 /opt/microchip/xc32/v5.00/bin/bin/../../lib/gcc/pic32m/13.2.1/../../../../pic32m/lib/libpic32.a(vector2.o)

.text%z389      0x00000000        0x0
 .text          0x00000000        0x0 /opt/microchip/xc32/v5.00/bin/bin/../../lib/gcc/pic32m/13.2.1/../../../../pic32m/lib/libpic32.a(vector1.o)

.text%z390      0x00000000        0x0
 .text          0x00000000        0x0 /opt/microchip/xc32/v5.00/bin/bin/../../lib/gcc/pic32m/13.2.1/../../../../pic32m/lib/libpic32.a(general-exception.o)

.text%z391      0x00000000        0x0
 .text          0x00000000        0x0 /opt/microchip/xc32/v5.00/bin/bin/../../lib/gcc/pic32m/13.2.1/../../../../pic32m/lib/libpic32.a(xc32_uart.o)

.text%z392      0x00000000        0x0
 .text          0x00000000        0x0 /opt/microchip/xc32/v5.00/bin/bin/../../lib/gcc/pic32m/13.2.1/../../../../pic32m/lib/libpic32.a(default-on-bootstrap.o)

.text%z393      0x00000000        0x0
 .text          0x00000000        0x0 /opt/microchip/xc32/v5.00/bin/bin/../../lib/gcc/pic32m/13.2.1/../../../../pic32m/lib/libpic32.a(default-on-reset.o)

.text%z394      0x00000000        0x0
 .text          0x00000000        0x0 /opt/microchip/xc32/v5.00/bin/bin/../../lib/gcc/pic32m/13.2.1/../../../../pic32m/lib/libpic32.a(default-bootstrap-exception-handler.o)

.text%z395      0x00000000        0x0
 .text          0x00000000        0x0 /opt/microchip/xc32/v5.00/bin/bin/../../lib/gcc/pic32m/13.2.1/../../../../pic32m/lib/debug-exception-return.o

.text%z396      0x00000000        0x0
 .text          0x00000000        0x0 /tmp/ccZ3wfy0.o

.text%z397      0x00000000        0x0
 .text          0x00000000        0x0 /tmp/cc6UiQtu.o

.text%z398      0x00000000        0x0
 .text          0x00000000        0x0 /tmp/cckmVf8F.o

.text%z399      0x00000000        0x0
 .text          0x00000000        0x0 build/default/production/FrameworkSource/ES_PostList.o
